Archive member included because of file (symbol)

/usr/local/CrossPack-AVR-20130212/lib/gcc/avr/4.6.2/avr35/libgcc.a(_mulhi3.o)
                              ../../LUFA/Drivers/USB/Class/Common/HIDParser.o (__mulhi3)
/usr/local/CrossPack-AVR-20130212/lib/gcc/avr/4.6.2/avr35/libgcc.a(_exit.o)
                              /usr/local/CrossPack-AVR-20130212/lib/gcc/avr/4.6.2/../../../../avr/lib/avr35/crtusb162.o (exit)
/usr/local/CrossPack-AVR-20130212/lib/gcc/avr/4.6.2/avr35/libgcc.a(_copy_data.o)
                              AVRISP-MKII.o (__do_copy_data)
/usr/local/CrossPack-AVR-20130212/lib/gcc/avr/4.6.2/avr35/libgcc.a(_clear_bss.o)
                              AVRISP-MKII.o (__do_clear_bss)
/usr/local/CrossPack-AVR-20130212/lib/gcc/avr/4.6.2/../../../../avr/lib/avr35/libc.a(eerd_byte_at90usb162.o)
                              Lib/V2ProtocolParams.o (__eerd_byte_usb162)
/usr/local/CrossPack-AVR-20130212/lib/gcc/avr/4.6.2/../../../../avr/lib/avr35/libc.a(eeupd_byte_at90usb162.o)
                              Lib/V2ProtocolParams.o (__eeupd_byte_usb162)

Allocating common symbols
Common symbol       size              file

USB_IsInitialized   0x1               ../../LUFA/Drivers/USB/Core/USBTask.o
MustLoadExtendedAddress
                    0x1               Lib/V2Protocol.o
USB_Device_ConfigurationNumber
                    0x1               ../../LUFA/Drivers/USB/Core/DeviceStandardReq.o
USB_ControlRequest  0x8               ../../LUFA/Drivers/USB/Core/USBTask.o
CurrentAddress      0x4               Lib/V2Protocol.o
IsSending           0x1               Lib/XPROG/XPROGTarget.o

Discarded input sections

 .bss           0x00000000        0x0 /usr/local/CrossPack-AVR-20130212/lib/gcc/avr/4.6.2/../../../../avr/lib/avr35/crtusb162.o
 .text          0x00000000        0x0 AVRISP-MKII.o
 .bss           0x00000000        0x0 AVRISP-MKII.o
 .text          0x00000000        0x0 AVRISPDescriptors.o
 .bss           0x00000000        0x0 AVRISPDescriptors.o
 .text          0x00000000        0x0 Lib/V2Protocol.o
 .bss           0x00000000        0x0 Lib/V2Protocol.o
 .text          0x00000000        0x0 Lib/V2ProtocolParams.o
 .bss           0x00000000        0x0 Lib/V2ProtocolParams.o
 .text          0x00000000        0x0 Lib/ISP/ISPProtocol.o
 .bss           0x00000000        0x0 Lib/ISP/ISPProtocol.o
 .text          0x00000000        0x0 Lib/ISP/ISPTarget.o
 .text          0x00000000        0x0 Lib/XPROG/XPROGProtocol.o
 .text          0x00000000        0x0 Lib/XPROG/XPROGTarget.o
 .bss           0x00000000        0x0 Lib/XPROG/XPROGTarget.o
 .text          0x00000000        0x0 Lib/XPROG/XMEGANVM.o
 .bss           0x00000000        0x0 Lib/XPROG/XMEGANVM.o
 .text          0x00000000        0x0 Lib/XPROG/TINYNVM.o
 .bss           0x00000000        0x0 Lib/XPROG/TINYNVM.o
 .text          0x00000000        0x0 ../../LUFA/Drivers/USB/Class/Common/HIDParser.o
 .bss           0x00000000        0x0 ../../LUFA/Drivers/USB/Class/Common/HIDParser.o
 .text.USB_ProcessHIDReport
                0x00000000      0x7a8 ../../LUFA/Drivers/USB/Class/Common/HIDParser.o
 .text.USB_GetHIDReportItemInfo
                0x00000000       0xc2 ../../LUFA/Drivers/USB/Class/Common/HIDParser.o
 .text.USB_SetHIDReportItemInfo
                0x00000000       0xd8 ../../LUFA/Drivers/USB/Class/Common/HIDParser.o
 .text.USB_GetHIDReportSize
                0x00000000       0x60 ../../LUFA/Drivers/USB/Class/Common/HIDParser.o
 .text          0x00000000        0x0 ../../LUFA/Drivers/USB/Core/AVR8/Device_AVR8.o
 .bss           0x00000000        0x0 ../../LUFA/Drivers/USB/Core/AVR8/Device_AVR8.o
 .text.USB_Device_SendRemoteWakeup
                0x00000000       0x2c ../../LUFA/Drivers/USB/Core/AVR8/Device_AVR8.o
 .text          0x00000000        0x0 ../../LUFA/Drivers/USB/Core/AVR8/EndpointStream_AVR8.o
 .bss           0x00000000        0x0 ../../LUFA/Drivers/USB/Core/AVR8/EndpointStream_AVR8.o
 .text.Endpoint_Discard_Stream
                0x00000000       0x8e ../../LUFA/Drivers/USB/Core/AVR8/EndpointStream_AVR8.o
 .text.Endpoint_Null_Stream
                0x00000000       0x8e ../../LUFA/Drivers/USB/Core/AVR8/EndpointStream_AVR8.o
 .text.Endpoint_Write_Stream_BE
                0x00000000       0xb4 ../../LUFA/Drivers/USB/Core/AVR8/EndpointStream_AVR8.o
 .text.Endpoint_Write_PStream_LE
                0x00000000       0xaa ../../LUFA/Drivers/USB/Core/AVR8/EndpointStream_AVR8.o
 .text.Endpoint_Write_PStream_BE
                0x00000000       0xb6 ../../LUFA/Drivers/USB/Core/AVR8/EndpointStream_AVR8.o
 .text.Endpoint_Write_EStream_LE
                0x00000000       0xac ../../LUFA/Drivers/USB/Core/AVR8/EndpointStream_AVR8.o
 .text.Endpoint_Write_EStream_BE
                0x00000000       0xb8 ../../LUFA/Drivers/USB/Core/AVR8/EndpointStream_AVR8.o
 .text.Endpoint_Read_EStream_LE
                0x00000000       0xac ../../LUFA/Drivers/USB/Core/AVR8/EndpointStream_AVR8.o
 .text.Endpoint_Read_EStream_BE
                0x00000000       0xb8 ../../LUFA/Drivers/USB/Core/AVR8/EndpointStream_AVR8.o
 .text.Endpoint_Write_Control_Stream_BE
                0x00000000       0xb8 ../../LUFA/Drivers/USB/Core/AVR8/EndpointStream_AVR8.o
 .text.Endpoint_Read_Control_Stream_LE
                0x00000000       0x8a ../../LUFA/Drivers/USB/Core/AVR8/EndpointStream_AVR8.o
 .text.Endpoint_Read_Control_Stream_BE
                0x00000000       0x7a ../../LUFA/Drivers/USB/Core/AVR8/EndpointStream_AVR8.o
 .text.Endpoint_Write_Control_PStream_BE
                0x00000000       0xba ../../LUFA/Drivers/USB/Core/AVR8/EndpointStream_AVR8.o
 .text.Endpoint_Write_Control_EStream_BE
                0x00000000       0xf0 ../../LUFA/Drivers/USB/Core/AVR8/EndpointStream_AVR8.o
 .text.Endpoint_Read_Control_EStream_LE
                0x00000000       0x8c ../../LUFA/Drivers/USB/Core/AVR8/EndpointStream_AVR8.o
 .text.Endpoint_Read_Control_EStream_BE
                0x00000000       0x8a ../../LUFA/Drivers/USB/Core/AVR8/EndpointStream_AVR8.o
 .text          0x00000000        0x0 ../../LUFA/Drivers/USB/Core/AVR8/Endpoint_AVR8.o
 .bss           0x00000000        0x0 ../../LUFA/Drivers/USB/Core/AVR8/Endpoint_AVR8.o
 .text.Endpoint_ConfigureEndpointTable
                0x00000000       0x7a ../../LUFA/Drivers/USB/Core/AVR8/Endpoint_AVR8.o
 .text.Endpoint_ClearEndpoints
                0x00000000       0x28 ../../LUFA/Drivers/USB/Core/AVR8/Endpoint_AVR8.o
 .text          0x00000000        0x0 ../../LUFA/Drivers/USB/Core/AVR8/Host_AVR8.o
 .bss           0x00000000        0x0 ../../LUFA/Drivers/USB/Core/AVR8/Host_AVR8.o
 .text          0x00000000        0x0 ../../LUFA/Drivers/USB/Core/AVR8/PipeStream_AVR8.o
 .bss           0x00000000        0x0 ../../LUFA/Drivers/USB/Core/AVR8/PipeStream_AVR8.o
 .text          0x00000000        0x0 ../../LUFA/Drivers/USB/Core/AVR8/Pipe_AVR8.o
 .bss           0x00000000        0x0 ../../LUFA/Drivers/USB/Core/AVR8/Pipe_AVR8.o
 .text          0x00000000        0x0 ../../LUFA/Drivers/USB/Core/AVR8/USBController_AVR8.o
 .bss           0x00000000        0x0 ../../LUFA/Drivers/USB/Core/AVR8/USBController_AVR8.o
 .text.USB_Disable
                0x00000000       0x2e ../../LUFA/Drivers/USB/Core/AVR8/USBController_AVR8.o
 .text          0x00000000        0x0 ../../LUFA/Drivers/USB/Core/AVR8/USBInterrupt_AVR8.o
 .bss           0x00000000        0x0 ../../LUFA/Drivers/USB/Core/AVR8/USBInterrupt_AVR8.o
 .text          0x00000000        0x0 ../../LUFA/Drivers/USB/Core/ConfigDescriptors.o
 .bss           0x00000000        0x0 ../../LUFA/Drivers/USB/Core/ConfigDescriptors.o
 .text.USB_GetNextDescriptorOfType
                0x00000000       0x4e ../../LUFA/Drivers/USB/Core/ConfigDescriptors.o
 .text.USB_GetNextDescriptorOfTypeBefore
                0x00000000       0x56 ../../LUFA/Drivers/USB/Core/ConfigDescriptors.o
 .text.USB_GetNextDescriptorOfTypeAfter
                0x00000000       0x34 ../../LUFA/Drivers/USB/Core/ConfigDescriptors.o
 .text.USB_GetNextDescriptorComp
                0x00000000       0x8e ../../LUFA/Drivers/USB/Core/ConfigDescriptors.o
 .text          0x00000000        0x0 ../../LUFA/Drivers/USB/Core/DeviceStandardReq.o
 .bss           0x00000000        0x0 ../../LUFA/Drivers/USB/Core/DeviceStandardReq.o
 .text          0x00000000        0x0 ../../LUFA/Drivers/USB/Core/Events.o
 .bss           0x00000000        0x0 ../../LUFA/Drivers/USB/Core/Events.o
 .text          0x00000000        0x0 ../../LUFA/Drivers/USB/Core/HostStandardReq.o
 .bss           0x00000000        0x0 ../../LUFA/Drivers/USB/Core/HostStandardReq.o
 .text          0x00000000        0x0 ../../LUFA/Drivers/USB/Core/USBTask.o
 .bss           0x00000000        0x0 ../../LUFA/Drivers/USB/Core/USBTask.o
 .text          0x00000000        0x0 /usr/local/CrossPack-AVR-20130212/lib/gcc/avr/4.6.2/avr35/libgcc.a(_mulhi3.o)
 .bss           0x00000000        0x0 /usr/local/CrossPack-AVR-20130212/lib/gcc/avr/4.6.2/avr35/libgcc.a(_mulhi3.o)
 .text.libgcc   0x00000000       0x24 /usr/local/CrossPack-AVR-20130212/lib/gcc/avr/4.6.2/avr35/libgcc.a(_mulhi3.o)
 .text          0x00000000        0x0 /usr/local/CrossPack-AVR-20130212/lib/gcc/avr/4.6.2/avr35/libgcc.a(_exit.o)
 .bss           0x00000000        0x0 /usr/local/CrossPack-AVR-20130212/lib/gcc/avr/4.6.2/avr35/libgcc.a(_exit.o)
 .text.libgcc   0x00000000        0x0 /usr/local/CrossPack-AVR-20130212/lib/gcc/avr/4.6.2/avr35/libgcc.a(_exit.o)
 .text          0x00000000        0x0 /usr/local/CrossPack-AVR-20130212/lib/gcc/avr/4.6.2/avr35/libgcc.a(_copy_data.o)
 .bss           0x00000000        0x0 /usr/local/CrossPack-AVR-20130212/lib/gcc/avr/4.6.2/avr35/libgcc.a(_copy_data.o)
 .text.libgcc   0x00000000        0x0 /usr/local/CrossPack-AVR-20130212/lib/gcc/avr/4.6.2/avr35/libgcc.a(_copy_data.o)
 .text          0x00000000        0x0 /usr/local/CrossPack-AVR-20130212/lib/gcc/avr/4.6.2/avr35/libgcc.a(_clear_bss.o)
 .bss           0x00000000        0x0 /usr/local/CrossPack-AVR-20130212/lib/gcc/avr/4.6.2/avr35/libgcc.a(_clear_bss.o)
 .text.libgcc   0x00000000        0x0 /usr/local/CrossPack-AVR-20130212/lib/gcc/avr/4.6.2/avr35/libgcc.a(_clear_bss.o)
 .text          0x00000000        0x0 /usr/local/CrossPack-AVR-20130212/lib/gcc/avr/4.6.2/../../../../avr/lib/avr35/libc.a(eerd_byte_at90usb162.o)
 .bss           0x00000000        0x0 /usr/local/CrossPack-AVR-20130212/lib/gcc/avr/4.6.2/../../../../avr/lib/avr35/libc.a(eerd_byte_at90usb162.o)
 .text          0x00000000        0x0 /usr/local/CrossPack-AVR-20130212/lib/gcc/avr/4.6.2/../../../../avr/lib/avr35/libc.a(eeupd_byte_at90usb162.o)
 .bss           0x00000000        0x0 /usr/local/CrossPack-AVR-20130212/lib/gcc/avr/4.6.2/../../../../avr/lib/avr35/libc.a(eeupd_byte_at90usb162.o)

Memory Configuration

Name             Origin             Length             Attributes
text             0x00000000         0x00010000         xr
data             0x00800060         0x0000ffa0         rw !x
eeprom           0x00810000         0x00010000         rw !x
fuse             0x00820000         0x00000400         rw !x
lock             0x00830000         0x00000400         rw !x
signature        0x00840000         0x00000400         rw !x
*default*        0x00000000         0xffffffff

Linker script and memory map

Address of section .data set to 0x800100
LOAD /usr/local/CrossPack-AVR-20130212/lib/gcc/avr/4.6.2/../../../../avr/lib/avr35/crtusb162.o
LOAD AVRISP-MKII.o
LOAD AVRISPDescriptors.o
LOAD Lib/V2Protocol.o
LOAD Lib/V2ProtocolParams.o
LOAD Lib/ISP/ISPProtocol.o
LOAD Lib/ISP/ISPTarget.o
LOAD Lib/XPROG/XPROGProtocol.o
LOAD Lib/XPROG/XPROGTarget.o
LOAD Lib/XPROG/XMEGANVM.o
LOAD Lib/XPROG/TINYNVM.o
LOAD ../../LUFA/Drivers/USB/Class/Common/HIDParser.o
LOAD ../../LUFA/Drivers/USB/Core/AVR8/Device_AVR8.o
LOAD ../../LUFA/Drivers/USB/Core/AVR8/EndpointStream_AVR8.o
LOAD ../../LUFA/Drivers/USB/Core/AVR8/Endpoint_AVR8.o
LOAD ../../LUFA/Drivers/USB/Core/AVR8/Host_AVR8.o
LOAD ../../LUFA/Drivers/USB/Core/AVR8/PipeStream_AVR8.o
LOAD ../../LUFA/Drivers/USB/Core/AVR8/Pipe_AVR8.o
LOAD ../../LUFA/Drivers/USB/Core/AVR8/USBController_AVR8.o
LOAD ../../LUFA/Drivers/USB/Core/AVR8/USBInterrupt_AVR8.o
LOAD ../../LUFA/Drivers/USB/Core/ConfigDescriptors.o
LOAD ../../LUFA/Drivers/USB/Core/DeviceStandardReq.o
LOAD ../../LUFA/Drivers/USB/Core/Events.o
LOAD ../../LUFA/Drivers/USB/Core/HostStandardReq.o
LOAD ../../LUFA/Drivers/USB/Core/USBTask.o
LOAD /usr/local/CrossPack-AVR-20130212/lib/gcc/avr/4.6.2/../../../../avr/lib/avr35/libm.a
LOAD /usr/local/CrossPack-AVR-20130212/lib/gcc/avr/4.6.2/avr35/libgcc.a
LOAD /usr/local/CrossPack-AVR-20130212/lib/gcc/avr/4.6.2/../../../../avr/lib/avr35/libc.a
LOAD /usr/local/CrossPack-AVR-20130212/lib/gcc/avr/4.6.2/avr35/libgcc.a

.hash
 *(.hash)

.dynsym
 *(.dynsym)

.dynstr
 *(.dynstr)

.gnu.version
 *(.gnu.version)

.gnu.version_d
 *(.gnu.version_d)

.gnu.version_r
 *(.gnu.version_r)

.rel.init
 *(.rel.init)

.rela.init
 *(.rela.init)

.rel.text
 *(.rel.text)
 *(.rel.text.*)
 *(.rel.gnu.linkonce.t*)

.rela.text
 *(.rela.text)
 *(.rela.text.*)
 *(.rela.gnu.linkonce.t*)

.rel.fini
 *(.rel.fini)

.rela.fini
 *(.rela.fini)

.rel.rodata
 *(.rel.rodata)
 *(.rel.rodata.*)
 *(.rel.gnu.linkonce.r*)

.rela.rodata
 *(.rela.rodata)
 *(.rela.rodata.*)
 *(.rela.gnu.linkonce.r*)

.rel.data
 *(.rel.data)
 *(.rel.data.*)
 *(.rel.gnu.linkonce.d*)

.rela.data
 *(.rela.data)
 *(.rela.data.*)
 *(.rela.gnu.linkonce.d*)

.rel.ctors
 *(.rel.ctors)

.rela.ctors
 *(.rela.ctors)

.rel.dtors
 *(.rel.dtors)

.rela.dtors
 *(.rela.dtors)

.rel.got
 *(.rel.got)

.rela.got
 *(.rela.got)

.rel.bss
 *(.rel.bss)

.rela.bss
 *(.rela.bss)

.rel.plt
 *(.rel.plt)

.rela.plt
 *(.rela.plt)

.text           0x00000000     0x2740
 *(.vectors)
 .vectors       0x00000000       0x74 /usr/local/CrossPack-AVR-20130212/lib/gcc/avr/4.6.2/../../../../avr/lib/avr35/crtusb162.o
                0x00000000                __vectors
                0x00000000                __vector_default
 *(.vectors)
 *(.progmem.gcc*)
 *(.progmem*)
 .progmem.data  0x00000074       0x3e AVRISPDescriptors.o
                0x00000074                AVRISP_ProductString
                0x0000008e                AVRISP_ManufacturerString
                0x0000009c                AVRISP_LanguageString
                0x000000a0                AVRISP_DeviceDescriptor
 .progmem.data  0x000000b2      0x141 Lib/ISP/ISPTarget.o
                0x000001f4                . = ALIGN (0x2)
 *fill*         0x000001f3        0x1 00
                0x000001f4                __trampolines_start = .
 *(.trampolines)
 .trampolines   0x000001f4        0x0 linker stubs
 *(.trampolines*)
                0x000001f4                __trampolines_end = .
 *(.jumptables)
 *(.jumptables*)
 *(.lowtext)
 *(.lowtext*)
                0x000001f4                __ctors_start = .
 *(.ctors)
                0x000001f4                __ctors_end = .
                0x000001f4                __dtors_start = .
 *(.dtors)
                0x000001f4                __dtors_end = .
 SORT(*)(.ctors)
 SORT(*)(.dtors)
 *(.init0)
 .init0         0x000001f4        0x0 /usr/local/CrossPack-AVR-20130212/lib/gcc/avr/4.6.2/../../../../avr/lib/avr35/crtusb162.o
                0x000001f4                __init
 *(.init0)
 *(.init1)
 *(.init1)
 *(.init2)
 .init2         0x000001f4        0xc /usr/local/CrossPack-AVR-20130212/lib/gcc/avr/4.6.2/../../../../avr/lib/avr35/crtusb162.o
 *(.init2)
 *(.init3)
 *(.init3)
 *(.init4)
 .init4         0x00000200       0x16 /usr/local/CrossPack-AVR-20130212/lib/gcc/avr/4.6.2/avr35/libgcc.a(_copy_data.o)
                0x00000200                __do_copy_data
 .init4         0x00000216       0x10 /usr/local/CrossPack-AVR-20130212/lib/gcc/avr/4.6.2/avr35/libgcc.a(_clear_bss.o)
                0x00000216                __do_clear_bss
 *(.init4)
 *(.init5)
 *(.init5)
 *(.init6)
 *(.init6)
 *(.init7)
 *(.init7)
 *(.init8)
 *(.init8)
 *(.init9)
 .init9         0x00000226        0x6 /usr/local/CrossPack-AVR-20130212/lib/gcc/avr/4.6.2/../../../../avr/lib/avr35/crtusb162.o
 *(.init9)
 *(.text)
 .text          0x0000022c        0x2 /usr/local/CrossPack-AVR-20130212/lib/gcc/avr/4.6.2/../../../../avr/lib/avr35/crtusb162.o
                0x0000022c                __vector_20
                0x0000022c                __vector_28
                0x0000022c                __vector_1
                0x0000022c                __vector_24
                0x0000022c                __vector_12
                0x0000022c                __bad_interrupt
                0x0000022c                __vector_6
                0x0000022c                __vector_3
                0x0000022c                __vector_23
                0x0000022c                __vector_25
                0x0000022c                __vector_13
                0x0000022c                __vector_17
                0x0000022c                __vector_7
                0x0000022c                __vector_27
                0x0000022c                __vector_5
                0x0000022c                __vector_4
                0x0000022c                __vector_9
                0x0000022c                __vector_2
                0x0000022c                __vector_21
                0x0000022c                __vector_8
                0x0000022c                __vector_26
                0x0000022c                __vector_14
                0x0000022c                __vector_10
                0x0000022c                __vector_16
                0x0000022c                __vector_18
                0x0000022c                __vector_22
                0x0000022e                . = ALIGN (0x2)
 *(.text.*)
 .text.LEDs_SetAllLEDs
                0x0000022e        0xa AVRISP-MKII.o
 .text.SetupHardware
                0x00000238       0x38 AVRISP-MKII.o
                0x00000238                SetupHardware
 .text.EVENT_USB_Device_Connect
                0x00000270        0x4 AVRISP-MKII.o
                0x00000270                EVENT_USB_Device_Connect
 .text.EVENT_USB_Device_Disconnect
                0x00000274        0x4 AVRISP-MKII.o
                0x00000274                EVENT_USB_Device_Disconnect
 .text.EVENT_USB_Device_ConfigurationChanged
                0x00000278       0x16 AVRISP-MKII.o
                0x00000278                EVENT_USB_Device_ConfigurationChanged
 .text.AVRISP_Task
                0x0000028e       0x22 AVRISP-MKII.o
                0x0000028e                AVRISP_Task
 .text.startup.main
                0x000002b0       0x24 AVRISP-MKII.o
                0x000002b0                main
 .text.CALLBACK_USB_GetDescriptor
                0x000002d4        0x4 AVRISP-MKII.o
                0x000002d4                CALLBACK_USB_GetDescriptor
 .text.AVRISP_GetDescriptor
                0x000002d8       0x7e AVRISPDescriptors.o
                0x000002d8                AVRISP_GetDescriptor
 .text.__vector_19
                0x00000356       0x2a Lib/V2Protocol.o
                0x00000356                __vector_19
 .text.V2Protocol_Init
                0x00000380       0x10 Lib/V2Protocol.o
                0x00000380                V2Protocol_Init
 .text.V2Protocol_ProcessCommand
                0x00000390      0x23c Lib/V2Protocol.o
                0x00000390                V2Protocol_ProcessCommand
 .text.V2Params_GetParamFromTable
                0x000005cc       0x1a Lib/V2ProtocolParams.o
 .text.V2Params_LoadNonVolatileParamValues
                0x000005e6       0x36 Lib/V2ProtocolParams.o
                0x000005e6                V2Params_LoadNonVolatileParamValues
 .text.V2Params_UpdateParamValues
                0x0000061c        0x2 Lib/V2ProtocolParams.o
                0x0000061c                V2Params_UpdateParamValues
 .text.V2Params_GetParameterPrivileges
                0x0000061e       0x10 Lib/V2ProtocolParams.o
                0x0000061e                V2Params_GetParameterPrivileges
 .text.V2Params_GetParameterValue
                0x0000062e       0x10 Lib/V2ProtocolParams.o
                0x0000062e                V2Params_GetParameterValue
 .text.V2Params_SetParameterValue
                0x0000063e       0x3c Lib/V2ProtocolParams.o
                0x0000063e                V2Params_SetParameterValue
 .text.ISPTarget_SendByte
                0x0000067a       0x14 Lib/ISP/ISPProtocol.o
 .text.ISPTarget_TransferByte
                0x0000068e       0x16 Lib/ISP/ISPProtocol.o
 .text.ISPTarget_ReceiveByte
                0x000006a4       0x18 Lib/ISP/ISPProtocol.o
 .text.ISPProtocol_ProgramMemory
                0x000006bc      0x258 Lib/ISP/ISPProtocol.o
                0x000006bc                ISPProtocol_ProgramMemory
 .text.ISPProtocol_ReadMemory
                0x00000914      0x13a Lib/ISP/ISPProtocol.o
                0x00000914                ISPProtocol_ReadMemory
 .text.ISPProtocol_ReadFuseLockSigOSCCAL
                0x00000a4e       0xb2 Lib/ISP/ISPProtocol.o
                0x00000a4e                ISPProtocol_ReadFuseLockSigOSCCAL
 .text.ISPProtocol_WriteFuseLock
                0x00000b00       0x82 Lib/ISP/ISPProtocol.o
                0x00000b00                ISPProtocol_WriteFuseLock
 .text.ISPProtocol_SPIMulti
                0x00000b82      0x108 Lib/ISP/ISPProtocol.o
                0x00000b82                ISPProtocol_SPIMulti
 .text.ISPProtocol_DelayMS
                0x00000c8a       0x1c Lib/ISP/ISPProtocol.o
                0x00000c8a                ISPProtocol_DelayMS
 .text.ISPProtocol_ChipErase
                0x00000ca6       0x90 Lib/ISP/ISPProtocol.o
                0x00000ca6                ISPProtocol_ChipErase
 .text.ISPProtocol_LeaveISPMode
                0x00000d36       0x68 Lib/ISP/ISPProtocol.o
                0x00000d36                ISPProtocol_LeaveISPMode
 .text.ISPProtocol_EnterISPMode
                0x00000d9e       0xf6 Lib/ISP/ISPProtocol.o
                0x00000d9e                ISPProtocol_EnterISPMode
 .text.__vector_15
                0x00000e94       0x5c Lib/ISP/ISPTarget.o
                0x00000e94                __vector_15
 .text.ISPTarget_ConfigureRescueClock
                0x00000ef0       0x28 Lib/ISP/ISPTarget.o
                0x00000ef0                ISPTarget_ConfigureRescueClock
 .text.ISPTarget_DisableTargetISP
                0x00000f18       0x28 Lib/ISP/ISPTarget.o
                0x00000f18                ISPTarget_DisableTargetISP
 .text.ISPTarget_ConfigureSoftwareSPI
                0x00000f40       0x30 Lib/ISP/ISPTarget.o
                0x00000f40                ISPTarget_ConfigureSoftwareSPI
 .text.ISPTarget_EnableTargetISP
                0x00000f70       0x50 Lib/ISP/ISPTarget.o
                0x00000f70                ISPTarget_EnableTargetISP
 .text.ISPTarget_TransferSoftSPIByte
                0x00000fc0       0x3e Lib/ISP/ISPTarget.o
                0x00000fc0                ISPTarget_TransferSoftSPIByte
 .text.ISPTarget_SendByte
                0x00000ffe       0x14 Lib/ISP/ISPTarget.o
 .text.ISPTarget_ChangeTargetResetLine
                0x00001012       0x18 Lib/ISP/ISPTarget.o
                0x00001012                ISPTarget_ChangeTargetResetLine
 .text.ISPTarget_WaitWhileTargetBusy
                0x0000102a       0x3c Lib/ISP/ISPTarget.o
                0x0000102a                ISPTarget_WaitWhileTargetBusy
 .text.ISPTarget_LoadExtendedAddress
                0x00001066       0x12 Lib/ISP/ISPTarget.o
                0x00001066                ISPTarget_LoadExtendedAddress
 .text.ISPTarget_WaitForProgComplete
                0x00001078       0x92 Lib/ISP/ISPTarget.o
                0x00001078                ISPTarget_WaitForProgComplete
 .text.SwapEndian_32
                0x0000110a        0xc Lib/XPROG/XPROGProtocol.o
 .text.XPROGProtocol_WriteMemory
                0x00001116      0x150 Lib/XPROG/XPROGProtocol.o
 .text.XPROGProtocol_ReadMemory
                0x00001266       0xd2 Lib/XPROG/XPROGProtocol.o
 .text.XPROGProtocol_SetMode
                0x00001338       0x60 Lib/XPROG/XPROGProtocol.o
                0x00001338                XPROGProtocol_SetMode
 .text.XPROGProtocol_Command
                0x00001398      0x296 Lib/XPROG/XPROGProtocol.o
                0x00001398                XPROGProtocol_Command
 .text.XPROGTarget_SetTxMode
                0x0000162e       0x2c Lib/XPROG/XPROGTarget.o
 .text.XPROGTarget_SetRxMode
                0x0000165a       0x30 Lib/XPROG/XPROGTarget.o
 .text.XPROGTarget_DisableTargetPDI
                0x0000168a       0x26 Lib/XPROG/XPROGTarget.o
                0x0000168a                XPROGTarget_DisableTargetPDI
 .text.XPROGTarget_DisableTargetTPI
                0x000016b0       0x2e Lib/XPROG/XPROGTarget.o
                0x000016b0                XPROGTarget_DisableTargetTPI
 .text.XPROGTarget_SendByte
                0x000016de       0x36 Lib/XPROG/XPROGTarget.o
                0x000016de                XPROGTarget_SendByte
 .text.XPROGTarget_ReceiveByte
                0x00001714       0x1e Lib/XPROG/XPROGTarget.o
                0x00001714                XPROGTarget_ReceiveByte
 .text.XPROGTarget_SendIdle
                0x00001732       0x1e Lib/XPROG/XPROGTarget.o
                0x00001732                XPROGTarget_SendIdle
 .text.XPROGTarget_EnableTargetTPI
                0x00001750       0x34 Lib/XPROG/XPROGTarget.o
                0x00001750                XPROGTarget_EnableTargetTPI
 .text.XPROGTarget_EnableTargetPDI
                0x00001784       0x32 Lib/XPROG/XPROGTarget.o
                0x00001784                XPROGTarget_EnableTargetPDI
 .text.XMEGANVM_SendAddress
                0x000017b6       0x32 Lib/XPROG/XMEGANVM.o
 .text.XMEGANVM_SendNVMRegAddress
                0x000017e8       0x24 Lib/XPROG/XMEGANVM.o
 .text.XMEGANVM_WaitWhileNVMBusBusy
                0x0000180c       0x18 Lib/XPROG/XMEGANVM.o
                0x0000180c                XMEGANVM_WaitWhileNVMBusBusy
 .text.XMEGANVM_WaitWhileNVMControllerBusy
                0x00001824       0x20 Lib/XPROG/XMEGANVM.o
                0x00001824                XMEGANVM_WaitWhileNVMControllerBusy
 .text.XMEGANVM_EnablePDI
                0x00001844       0x84 Lib/XPROG/XMEGANVM.o
                0x00001844                XMEGANVM_EnablePDI
 .text.XMEGANVM_DisablePDI
                0x000018c8       0x16 Lib/XPROG/XMEGANVM.o
                0x000018c8                XMEGANVM_DisablePDI
 .text.XMEGANVM_GetMemoryCRC
                0x000018de       0x6e Lib/XPROG/XMEGANVM.o
                0x000018de                XMEGANVM_GetMemoryCRC
 .text.XMEGANVM_ReadMemory
                0x0000194c       0x74 Lib/XPROG/XMEGANVM.o
                0x0000194c                XMEGANVM_ReadMemory
 .text.XMEGANVM_WriteByteMemory
                0x000019c0       0x48 Lib/XPROG/XMEGANVM.o
                0x000019c0                XMEGANVM_WriteByteMemory
 .text.XMEGANVM_WritePageMemory
                0x00001a08       0xe2 Lib/XPROG/XMEGANVM.o
                0x00001a08                XMEGANVM_WritePageMemory
 .text.XMEGANVM_EraseMemory
                0x00001aea       0xd0 Lib/XPROG/XMEGANVM.o
                0x00001aea                XMEGANVM_EraseMemory
 .text.TINYNVM_SendWriteNVMRegister
                0x00001bba       0x18 Lib/XPROG/TINYNVM.o
 .text.TINYNVM_SendPointerAddress
                0x00001bd2       0x2c Lib/XPROG/TINYNVM.o
 .text.TINYNVM_WaitWhileNVMBusBusy
                0x00001bfe       0x18 Lib/XPROG/TINYNVM.o
                0x00001bfe                TINYNVM_WaitWhileNVMBusBusy
 .text.TINYNVM_WaitWhileNVMControllerBusy
                0x00001c16       0x2c Lib/XPROG/TINYNVM.o
                0x00001c16                TINYNVM_WaitWhileNVMControllerBusy
 .text.TINYNVM_EnableTPI
                0x00001c42       0x7c Lib/XPROG/TINYNVM.o
                0x00001c42                TINYNVM_EnableTPI
 .text.TINYNVM_DisableTPI
                0x00001cbe       0x16 Lib/XPROG/TINYNVM.o
                0x00001cbe                TINYNVM_DisableTPI
 .text.TINYNVM_ReadMemory
                0x00001cd4       0x58 Lib/XPROG/TINYNVM.o
                0x00001cd4                TINYNVM_ReadMemory
 .text.TINYNVM_WriteMemory
                0x00001d2c       0x70 Lib/XPROG/TINYNVM.o
                0x00001d2c                TINYNVM_WriteMemory
 .text.TINYNVM_EraseMemory
                0x00001d9c       0x36 Lib/XPROG/TINYNVM.o
                0x00001d9c                TINYNVM_EraseMemory
 .text.Endpoint_Write_Stream_LE
                0x00001dd2       0xa0 ../../LUFA/Drivers/USB/Core/AVR8/EndpointStream_AVR8.o
                0x00001dd2                Endpoint_Write_Stream_LE
 .text.Endpoint_Read_Stream_LE
                0x00001e72       0xa0 ../../LUFA/Drivers/USB/Core/AVR8/EndpointStream_AVR8.o
                0x00001e72                Endpoint_Read_Stream_LE
 .text.Endpoint_Read_Stream_BE
                0x00001f12       0xae ../../LUFA/Drivers/USB/Core/AVR8/EndpointStream_AVR8.o
                0x00001f12                Endpoint_Read_Stream_BE
 .text.Endpoint_Write_Control_Stream_LE
                0x00001fc0       0xc6 ../../LUFA/Drivers/USB/Core/AVR8/EndpointStream_AVR8.o
                0x00001fc0                Endpoint_Write_Control_Stream_LE
 .text.Endpoint_Write_Control_PStream_LE
                0x00002086       0xc8 ../../LUFA/Drivers/USB/Core/AVR8/EndpointStream_AVR8.o
                0x00002086                Endpoint_Write_Control_PStream_LE
 .text.Endpoint_Write_Control_EStream_LE
                0x0000214e       0xda ../../LUFA/Drivers/USB/Core/AVR8/EndpointStream_AVR8.o
                0x0000214e                Endpoint_Write_Control_EStream_LE
 .text.Endpoint_ConfigureEndpoint_Prv
                0x00002228       0x28 ../../LUFA/Drivers/USB/Core/AVR8/Endpoint_AVR8.o
                0x00002228                Endpoint_ConfigureEndpoint_Prv
 .text.Endpoint_ClearStatusStage
                0x00002250       0x3e ../../LUFA/Drivers/USB/Core/AVR8/Endpoint_AVR8.o
                0x00002250                Endpoint_ClearStatusStage
 .text.Endpoint_WaitUntilReady
                0x0000228e       0x64 ../../LUFA/Drivers/USB/Core/AVR8/Endpoint_AVR8.o
                0x0000228e                Endpoint_WaitUntilReady
 .text.USB_ResetInterface
                0x000022f2       0x68 ../../LUFA/Drivers/USB/Core/AVR8/USBController_AVR8.o
                0x000022f2                USB_ResetInterface
 .text.USB_Init
                0x0000235a       0x12 ../../LUFA/Drivers/USB/Core/AVR8/USBController_AVR8.o
                0x0000235a                USB_Init
 .text.USB_INT_DisableAllInterrupts
                0x0000236c        0x6 ../../LUFA/Drivers/USB/Core/AVR8/USBInterrupt_AVR8.o
                0x0000236c                USB_INT_DisableAllInterrupts
 .text.USB_INT_ClearAllInterrupts
                0x00002372        0x6 ../../LUFA/Drivers/USB/Core/AVR8/USBInterrupt_AVR8.o
                0x00002372                USB_INT_ClearAllInterrupts
 .text.__vector_11
                0x00002378      0x126 ../../LUFA/Drivers/USB/Core/AVR8/USBInterrupt_AVR8.o
                0x00002378                __vector_11
 .text.USB_Device_ProcessControlRequest
                0x0000249e      0x232 ../../LUFA/Drivers/USB/Core/DeviceStandardReq.o
                0x0000249e                USB_Device_ProcessControlRequest
 .text.USB_Event_Stub
                0x000026d0        0x2 ../../LUFA/Drivers/USB/Core/Events.o
                0x000026d0                EVENT_USB_Device_WakeUp
                0x000026d0                USB_Event_Stub
                0x000026d0                EVENT_USB_Device_Suspend
                0x000026d0                EVENT_USB_Device_StartOfFrame
                0x000026d0                EVENT_USB_Device_Reset
                0x000026d0                EVENT_USB_Device_ControlRequest
 .text.USB_USBTask
                0x000026d2       0x36 ../../LUFA/Drivers/USB/Core/USBTask.o
                0x000026d2                USB_USBTask
 .text.avr-libc
                0x00002708       0x10 /usr/local/CrossPack-AVR-20130212/lib/gcc/avr/4.6.2/../../../../avr/lib/avr35/libc.a(eerd_byte_at90usb162.o)
                0x00002708                __eerd_byte_usb162
 .text.avr-libc
                0x00002718       0x24 /usr/local/CrossPack-AVR-20130212/lib/gcc/avr/4.6.2/../../../../avr/lib/avr35/libc.a(eeupd_byte_at90usb162.o)
                0x00002718                __eeupd_byte_usb162
                0x0000271a                __eeupd_r18_usb162
                0x0000273c                . = ALIGN (0x2)
 *(.fini9)
 .fini9         0x0000273c        0x0 /usr/local/CrossPack-AVR-20130212/lib/gcc/avr/4.6.2/avr35/libgcc.a(_exit.o)
                0x0000273c                exit
                0x0000273c                _exit
 *(.fini9)
 *(.fini8)
 *(.fini8)
 *(.fini7)
 *(.fini7)
 *(.fini6)
 *(.fini6)
 *(.fini5)
 *(.fini5)
 *(.fini4)
 *(.fini4)
 *(.fini3)
 *(.fini3)
 *(.fini2)
 *(.fini2)
 *(.fini1)
 *(.fini1)
 *(.fini0)
 .fini0         0x0000273c        0x4 /usr/local/CrossPack-AVR-20130212/lib/gcc/avr/4.6.2/avr35/libgcc.a(_exit.o)
 *(.fini0)
                0x00002740                _etext = .

.data           0x00800100       0xa2 load address 0x00002740
                0x00800100                PROVIDE (__data_start, .)
 *(.data)
 .data          0x00800100        0x0 /usr/local/CrossPack-AVR-20130212/lib/gcc/avr/4.6.2/../../../../avr/lib/avr35/crtusb162.o
 .data          0x00800100        0x0 AVRISP-MKII.o
 .data          0x00800100       0x3e AVRISPDescriptors.o
                0x00800100                AVRISP_SerialString
                0x0080011e                AVRISP_ConfigurationDescriptor
 .data          0x0080013e        0xb Lib/V2Protocol.o
 .data          0x00800149       0x1e Lib/V2ProtocolParams.o
 .data          0x00800167        0x0 Lib/ISP/ISPProtocol.o
 .data          0x00800167        0x1 Lib/ISP/ISPTarget.o
                0x00800167                HardwareSPIMode
 .data          0x00800168       0x2a Lib/XPROG/XPROGProtocol.o
                0x00800168                XPROG_Param_NVMCSRRegAddr
                0x00800169                XPROG_Param_NVMCMDRegAddr
                0x0080016a                XPROG_Param_EEPageSize
                0x0080016c                XPROG_Param_NVMBase
 .data          0x00800192        0x0 Lib/XPROG/XPROGTarget.o
 .data          0x00800192        0x8 Lib/XPROG/XMEGANVM.o
 .data          0x0080019a        0x8 Lib/XPROG/TINYNVM.o
 .data          0x008001a2        0x0 ../../LUFA/Drivers/USB/Class/Common/HIDParser.o
 .data          0x008001a2        0x0 ../../LUFA/Drivers/USB/Core/AVR8/Device_AVR8.o
 .data          0x008001a2        0x0 ../../LUFA/Drivers/USB/Core/AVR8/EndpointStream_AVR8.o
 .data          0x008001a2        0x0 ../../LUFA/Drivers/USB/Core/AVR8/Endpoint_AVR8.o
 .data          0x008001a2        0x0 ../../LUFA/Drivers/USB/Core/AVR8/Host_AVR8.o
 .data          0x008001a2        0x0 ../../LUFA/Drivers/USB/Core/AVR8/PipeStream_AVR8.o
 .data          0x008001a2        0x0 ../../LUFA/Drivers/USB/Core/AVR8/Pipe_AVR8.o
 .data          0x008001a2        0x0 ../../LUFA/Drivers/USB/Core/AVR8/USBController_AVR8.o
 .data          0x008001a2        0x0 ../../LUFA/Drivers/USB/Core/AVR8/USBInterrupt_AVR8.o
 .data          0x008001a2        0x0 ../../LUFA/Drivers/USB/Core/ConfigDescriptors.o
 .data          0x008001a2        0x0 ../../LUFA/Drivers/USB/Core/DeviceStandardReq.o
 .data          0x008001a2        0x0 ../../LUFA/Drivers/USB/Core/Events.o
 .data          0x008001a2        0x0 ../../LUFA/Drivers/USB/Core/HostStandardReq.o
 .data          0x008001a2        0x0 ../../LUFA/Drivers/USB/Core/USBTask.o
 .data          0x008001a2        0x0 /usr/local/CrossPack-AVR-20130212/lib/gcc/avr/4.6.2/avr35/libgcc.a(_mulhi3.o)
 .data          0x008001a2        0x0 /usr/local/CrossPack-AVR-20130212/lib/gcc/avr/4.6.2/avr35/libgcc.a(_exit.o)
 .data          0x008001a2        0x0 /usr/local/CrossPack-AVR-20130212/lib/gcc/avr/4.6.2/avr35/libgcc.a(_copy_data.o)
 .data          0x008001a2        0x0 /usr/local/CrossPack-AVR-20130212/lib/gcc/avr/4.6.2/avr35/libgcc.a(_clear_bss.o)
 .data          0x008001a2        0x0 /usr/local/CrossPack-AVR-20130212/lib/gcc/avr/4.6.2/../../../../avr/lib/avr35/libc.a(eerd_byte_at90usb162.o)
 .data          0x008001a2        0x0 /usr/local/CrossPack-AVR-20130212/lib/gcc/avr/4.6.2/../../../../avr/lib/avr35/libc.a(eeupd_byte_at90usb162.o)
 *(.data*)
 *(.rodata)
 *(.rodata*)
 *(.gnu.linkonce.d*)
                0x008001a2                . = ALIGN (0x2)
                0x008001a2                _edata = .
                0x008001a2                PROVIDE (__data_end, .)

.bss            0x008001a2       0x13
                0x008001a2                PROVIDE (__bss_start, .)
 *(.bss)
 .bss           0x008001a2        0x2 Lib/ISP/ISPTarget.o
 .bss           0x008001a4        0x1 Lib/XPROG/XPROGProtocol.o
                0x008001a4                XPROG_SelectedProtocol
 *(.bss*)
 *(COMMON)
 COMMON         0x008001a5        0x5 Lib/V2Protocol.o
                0x008001a5                MustLoadExtendedAddress
                0x008001a6                CurrentAddress
 COMMON         0x008001aa        0x1 Lib/XPROG/XPROGTarget.o
                0x008001aa                IsSending
 COMMON         0x008001ab        0x1 ../../LUFA/Drivers/USB/Core/DeviceStandardReq.o
                0x008001ab                USB_Device_ConfigurationNumber
 COMMON         0x008001ac        0x9 ../../LUFA/Drivers/USB/Core/USBTask.o
                0x008001ac                USB_IsInitialized
                0x008001ad                USB_ControlRequest
                0x008001b5                PROVIDE (__bss_end, .)
                0x00002740                __data_load_start = LOADADDR (.data)
                0x000027e2                __data_load_end = (__data_load_start + SIZEOF (.data))

.noinit         0x008001b5        0x0
                0x008001b5                PROVIDE (__noinit_start, .)
 *(.noinit*)
                0x008001b5                PROVIDE (__noinit_end, .)
                0x008001b5                _end = .
                0x008001b5                PROVIDE (__heap_start, .)

.eeprom         0x00810000        0x2
 *(.eeprom*)
 .eeprom        0x00810000        0x2 Lib/V2ProtocolParams.o
                0x00810002                __eeprom_end = .

.fuse
 *(.fuse)
 *(.lfuse)
 *(.hfuse)
 *(.efuse)

.lock
 *(.lock*)

.signature
 *(.signature*)

.stab           0x00000000      0x870
 *(.stab)
 .stab          0x00000000      0x6cc /usr/local/CrossPack-AVR-20130212/lib/gcc/avr/4.6.2/../../../../avr/lib/avr35/crtusb162.o
 .stab          0x000006cc       0x90 /usr/local/CrossPack-AVR-20130212/lib/gcc/avr/4.6.2/../../../../avr/lib/avr35/libc.a(eerd_byte_at90usb162.o)
                                 0x9c (size before relaxing)
 .stab          0x0000075c      0x114 /usr/local/CrossPack-AVR-20130212/lib/gcc/avr/4.6.2/../../../../avr/lib/avr35/libc.a(eeupd_byte_at90usb162.o)
                                0x120 (size before relaxing)

.stabstr        0x00000000      0x13a
 *(.stabstr)
 .stabstr       0x00000000      0x13a /usr/local/CrossPack-AVR-20130212/lib/gcc/avr/4.6.2/../../../../avr/lib/avr35/crtusb162.o

.stab.excl
 *(.stab.excl)

.stab.exclstr
 *(.stab.exclstr)

.stab.index
 *(.stab.index)

.stab.indexstr
 *(.stab.indexstr)

.comment
 *(.comment)

.debug
 *(.debug)

.line
 *(.line)

.debug_srcinfo
 *(.debug_srcinfo)

.debug_sfnames
 *(.debug_sfnames)

.debug_aranges  0x00000000      0x620
 *(.debug_aranges)
 .debug_aranges
                0x00000000       0x58 AVRISP-MKII.o
 .debug_aranges
                0x00000058       0x20 AVRISPDescriptors.o
 .debug_aranges
                0x00000078       0x30 Lib/V2Protocol.o
 .debug_aranges
                0x000000a8       0x48 Lib/V2ProtocolParams.o
 .debug_aranges
                0x000000f0       0x78 Lib/ISP/ISPProtocol.o
 .debug_aranges
                0x00000168       0x70 Lib/ISP/ISPTarget.o
 .debug_aranges
                0x000001d8       0x40 Lib/XPROG/XPROGProtocol.o
 .debug_aranges
                0x00000218       0x60 Lib/XPROG/XPROGTarget.o
 .debug_aranges
                0x00000278       0x70 Lib/XPROG/XMEGANVM.o
 .debug_aranges
                0x000002e8       0x60 Lib/XPROG/TINYNVM.o
 .debug_aranges
                0x00000348       0x38 ../../LUFA/Drivers/USB/Class/Common/HIDParser.o
 .debug_aranges
                0x00000380       0x20 ../../LUFA/Drivers/USB/Core/AVR8/Device_AVR8.o
 .debug_aranges
                0x000003a0       0xc8 ../../LUFA/Drivers/USB/Core/AVR8/EndpointStream_AVR8.o
 .debug_aranges
                0x00000468       0x40 ../../LUFA/Drivers/USB/Core/AVR8/Endpoint_AVR8.o
 .debug_aranges
                0x000004a8       0x30 ../../LUFA/Drivers/USB/Core/AVR8/USBController_AVR8.o
 .debug_aranges
                0x000004d8       0x30 ../../LUFA/Drivers/USB/Core/AVR8/USBInterrupt_AVR8.o
 .debug_aranges
                0x00000508       0x38 ../../LUFA/Drivers/USB/Core/ConfigDescriptors.o
 .debug_aranges
                0x00000540       0x20 ../../LUFA/Drivers/USB/Core/DeviceStandardReq.o
 .debug_aranges
                0x00000560       0x20 ../../LUFA/Drivers/USB/Core/Events.o
 .debug_aranges
                0x00000580       0x20 ../../LUFA/Drivers/USB/Core/USBTask.o
 .debug_aranges
                0x000005a0       0x20 /usr/local/CrossPack-AVR-20130212/lib/gcc/avr/4.6.2/avr35/libgcc.a(_mulhi3.o)
 .debug_aranges
                0x000005c0       0x20 /usr/local/CrossPack-AVR-20130212/lib/gcc/avr/4.6.2/avr35/libgcc.a(_exit.o)
 .debug_aranges
                0x000005e0       0x20 /usr/local/CrossPack-AVR-20130212/lib/gcc/avr/4.6.2/avr35/libgcc.a(_copy_data.o)
 .debug_aranges
                0x00000600       0x20 /usr/local/CrossPack-AVR-20130212/lib/gcc/avr/4.6.2/avr35/libgcc.a(_clear_bss.o)

.debug_pubnames
 *(.debug_pubnames)

.debug_info     0x00000000     0x7c07
 *(.debug_info)
 .debug_info    0x00000000      0x433 AVRISP-MKII.o
 .debug_info    0x00000433      0x636 AVRISPDescriptors.o
 .debug_info    0x00000a69      0x609 Lib/V2Protocol.o
 .debug_info    0x00001072      0x286 Lib/V2ProtocolParams.o
 .debug_info    0x000012f8     0x1066 Lib/ISP/ISPProtocol.o
 .debug_info    0x0000235e      0x4d4 Lib/ISP/ISPTarget.o
 .debug_info    0x00002832      0xd92 Lib/XPROG/XPROGProtocol.o
 .debug_info    0x000035c4      0x28b Lib/XPROG/XPROGTarget.o
 .debug_info    0x0000384f      0x3e8 Lib/XPROG/XMEGANVM.o
 .debug_info    0x00003c37      0x2ec Lib/XPROG/TINYNVM.o
 .debug_info    0x00003f23      0x6fa ../../LUFA/Drivers/USB/Class/Common/HIDParser.o
 .debug_info    0x0000461d       0xca ../../LUFA/Drivers/USB/Core/AVR8/Device_AVR8.o
 .debug_info    0x000046e7     0x1553 ../../LUFA/Drivers/USB/Core/AVR8/EndpointStream_AVR8.o
 .debug_info    0x00005c3a      0x585 ../../LUFA/Drivers/USB/Core/AVR8/Endpoint_AVR8.o
 .debug_info    0x000061bf       0x5e ../../LUFA/Drivers/USB/Core/AVR8/Host_AVR8.o
 .debug_info    0x0000621d       0x5e ../../LUFA/Drivers/USB/Core/AVR8/PipeStream_AVR8.o
 .debug_info    0x0000627b       0x5e ../../LUFA/Drivers/USB/Core/AVR8/Pipe_AVR8.o
 .debug_info    0x000062d9      0x3d0 ../../LUFA/Drivers/USB/Core/AVR8/USBController_AVR8.o
 .debug_info    0x000066a9      0x4c7 ../../LUFA/Drivers/USB/Core/AVR8/USBInterrupt_AVR8.o
 .debug_info    0x00006b70      0x37e ../../LUFA/Drivers/USB/Core/ConfigDescriptors.o
 .debug_info    0x00006eee      0x709 ../../LUFA/Drivers/USB/Core/DeviceStandardReq.o
 .debug_info    0x000075f7       0x77 ../../LUFA/Drivers/USB/Core/Events.o
 .debug_info    0x0000766e       0x5e ../../LUFA/Drivers/USB/Core/HostStandardReq.o
 .debug_info    0x000076cc      0x237 ../../LUFA/Drivers/USB/Core/USBTask.o
 .debug_info    0x00007903       0xc1 /usr/local/CrossPack-AVR-20130212/lib/gcc/avr/4.6.2/avr35/libgcc.a(_mulhi3.o)
 .debug_info    0x000079c4       0xc1 /usr/local/CrossPack-AVR-20130212/lib/gcc/avr/4.6.2/avr35/libgcc.a(_exit.o)
 .debug_info    0x00007a85       0xc1 /usr/local/CrossPack-AVR-20130212/lib/gcc/avr/4.6.2/avr35/libgcc.a(_copy_data.o)
 .debug_info    0x00007b46       0xc1 /usr/local/CrossPack-AVR-20130212/lib/gcc/avr/4.6.2/avr35/libgcc.a(_clear_bss.o)
 *(.gnu.linkonce.wi.*)

.debug_abbrev   0x00000000     0x20fd
 *(.debug_abbrev)
 .debug_abbrev  0x00000000      0x219 AVRISP-MKII.o
 .debug_abbrev  0x00000219      0x144 AVRISPDescriptors.o
 .debug_abbrev  0x0000035d      0x1cd Lib/V2Protocol.o
 .debug_abbrev  0x0000052a      0x11a Lib/V2ProtocolParams.o
 .debug_abbrev  0x00000644      0x336 Lib/ISP/ISPProtocol.o
 .debug_abbrev  0x0000097a      0x244 Lib/ISP/ISPTarget.o
 .debug_abbrev  0x00000bbe      0x2a1 Lib/XPROG/XPROGProtocol.o
 .debug_abbrev  0x00000e5f      0x16a Lib/XPROG/XPROGTarget.o
 .debug_abbrev  0x00000fc9      0x145 Lib/XPROG/XMEGANVM.o
 .debug_abbrev  0x0000110e      0x135 Lib/XPROG/TINYNVM.o
 .debug_abbrev  0x00001243      0x1ec ../../LUFA/Drivers/USB/Class/Common/HIDParser.o
 .debug_abbrev  0x0000142f       0x7d ../../LUFA/Drivers/USB/Core/AVR8/Device_AVR8.o
 .debug_abbrev  0x000014ac      0x1c2 ../../LUFA/Drivers/USB/Core/AVR8/EndpointStream_AVR8.o
 .debug_abbrev  0x0000166e      0x1fe ../../LUFA/Drivers/USB/Core/AVR8/Endpoint_AVR8.o
 .debug_abbrev  0x0000186c       0x2a ../../LUFA/Drivers/USB/Core/AVR8/Host_AVR8.o
 .debug_abbrev  0x00001896       0x2a ../../LUFA/Drivers/USB/Core/AVR8/PipeStream_AVR8.o
 .debug_abbrev  0x000018c0       0x2a ../../LUFA/Drivers/USB/Core/AVR8/Pipe_AVR8.o
 .debug_abbrev  0x000018ea      0x14d ../../LUFA/Drivers/USB/Core/AVR8/USBController_AVR8.o
 .debug_abbrev  0x00001a37      0x177 ../../LUFA/Drivers/USB/Core/AVR8/USBInterrupt_AVR8.o
 .debug_abbrev  0x00001bae      0x148 ../../LUFA/Drivers/USB/Core/ConfigDescriptors.o
 .debug_abbrev  0x00001cf6      0x201 ../../LUFA/Drivers/USB/Core/DeviceStandardReq.o
 .debug_abbrev  0x00001ef7       0x41 ../../LUFA/Drivers/USB/Core/Events.o
 .debug_abbrev  0x00001f38       0x2a ../../LUFA/Drivers/USB/Core/HostStandardReq.o
 .debug_abbrev  0x00001f62      0x14b ../../LUFA/Drivers/USB/Core/USBTask.o
 .debug_abbrev  0x000020ad       0x14 /usr/local/CrossPack-AVR-20130212/lib/gcc/avr/4.6.2/avr35/libgcc.a(_mulhi3.o)
 .debug_abbrev  0x000020c1       0x14 /usr/local/CrossPack-AVR-20130212/lib/gcc/avr/4.6.2/avr35/libgcc.a(_exit.o)
 .debug_abbrev  0x000020d5       0x14 /usr/local/CrossPack-AVR-20130212/lib/gcc/avr/4.6.2/avr35/libgcc.a(_copy_data.o)
 .debug_abbrev  0x000020e9       0x14 /usr/local/CrossPack-AVR-20130212/lib/gcc/avr/4.6.2/avr35/libgcc.a(_clear_bss.o)

.debug_line     0x00000000     0x3a34
 *(.debug_line)
 .debug_line    0x00000000      0x2ec AVRISP-MKII.o
 .debug_line    0x000002ec      0x16d AVRISPDescriptors.o
 .debug_line    0x00000459      0x224 Lib/V2Protocol.o
 .debug_line    0x0000067d      0x13a Lib/V2ProtocolParams.o
 .debug_line    0x000007b7      0x603 Lib/ISP/ISPProtocol.o
 .debug_line    0x00000dba      0x28d Lib/ISP/ISPTarget.o
 .debug_line    0x00001047      0x3a5 Lib/XPROG/XPROGProtocol.o
 .debug_line    0x000013ec      0x229 Lib/XPROG/XPROGTarget.o
 .debug_line    0x00001615      0x256 Lib/XPROG/XMEGANVM.o
 .debug_line    0x0000186b      0x1de Lib/XPROG/TINYNVM.o
 .debug_line    0x00001a49      0x26b ../../LUFA/Drivers/USB/Class/Common/HIDParser.o
 .debug_line    0x00001cb4      0x11f ../../LUFA/Drivers/USB/Core/AVR8/Device_AVR8.o
 .debug_line    0x00001dd3      0xc5c ../../LUFA/Drivers/USB/Core/AVR8/EndpointStream_AVR8.o
 .debug_line    0x00002a2f      0x32a ../../LUFA/Drivers/USB/Core/AVR8/Endpoint_AVR8.o
 .debug_line    0x00002d59       0x1a ../../LUFA/Drivers/USB/Core/AVR8/Host_AVR8.o
 .debug_line    0x00002d73       0x1a ../../LUFA/Drivers/USB/Core/AVR8/PipeStream_AVR8.o
 .debug_line    0x00002d8d       0x1a ../../LUFA/Drivers/USB/Core/AVR8/Pipe_AVR8.o
 .debug_line    0x00002da7      0x231 ../../LUFA/Drivers/USB/Core/AVR8/USBController_AVR8.o
 .debug_line    0x00002fd8      0x2e2 ../../LUFA/Drivers/USB/Core/AVR8/USBInterrupt_AVR8.o
 .debug_line    0x000032ba      0x187 ../../LUFA/Drivers/USB/Core/ConfigDescriptors.o
 .debug_line    0x00003441      0x2a5 ../../LUFA/Drivers/USB/Core/DeviceStandardReq.o
 .debug_line    0x000036e6       0x52 ../../LUFA/Drivers/USB/Core/Events.o
 .debug_line    0x00003738       0x1a ../../LUFA/Drivers/USB/Core/HostStandardReq.o
 .debug_line    0x00003752      0x153 ../../LUFA/Drivers/USB/Core/USBTask.o
 .debug_line    0x000038a5       0x6c /usr/local/CrossPack-AVR-20130212/lib/gcc/avr/4.6.2/avr35/libgcc.a(_mulhi3.o)
 .debug_line    0x00003911       0x5c /usr/local/CrossPack-AVR-20130212/lib/gcc/avr/4.6.2/avr35/libgcc.a(_exit.o)
 .debug_line    0x0000396d       0x65 /usr/local/CrossPack-AVR-20130212/lib/gcc/avr/4.6.2/avr35/libgcc.a(_copy_data.o)
 .debug_line    0x000039d2       0x62 /usr/local/CrossPack-AVR-20130212/lib/gcc/avr/4.6.2/avr35/libgcc.a(_clear_bss.o)

.debug_frame    0x00000000     0x1130
 *(.debug_frame)
 .debug_frame   0x00000000       0x94 AVRISP-MKII.o
 .debug_frame   0x00000094       0x24 AVRISPDescriptors.o
 .debug_frame   0x000000b8       0x70 Lib/V2Protocol.o
 .debug_frame   0x00000128       0x98 Lib/V2ProtocolParams.o
 .debug_frame   0x000001c0      0x22c Lib/ISP/ISPProtocol.o
 .debug_frame   0x000003ec       0xe8 Lib/ISP/ISPTarget.o
 .debug_frame   0x000004d4       0xcc Lib/XPROG/XPROGProtocol.o
 .debug_frame   0x000005a0       0xb4 Lib/XPROG/XPROGTarget.o
 .debug_frame   0x00000654      0x1d4 Lib/XPROG/XMEGANVM.o
 .debug_frame   0x00000828      0x138 Lib/XPROG/TINYNVM.o
 .debug_frame   0x00000960      0x110 ../../LUFA/Drivers/USB/Class/Common/HIDParser.o
 .debug_frame   0x00000a70       0x24 ../../LUFA/Drivers/USB/Core/AVR8/Device_AVR8.o
 .debug_frame   0x00000a94      0x40c ../../LUFA/Drivers/USB/Core/AVR8/EndpointStream_AVR8.o
 .debug_frame   0x00000ea0       0x78 ../../LUFA/Drivers/USB/Core/AVR8/Endpoint_AVR8.o
 .debug_frame   0x00000f18       0x44 ../../LUFA/Drivers/USB/Core/AVR8/USBController_AVR8.o
 .debug_frame   0x00000f5c       0x8c ../../LUFA/Drivers/USB/Core/AVR8/USBInterrupt_AVR8.o
 .debug_frame   0x00000fe8       0xbc ../../LUFA/Drivers/USB/Core/ConfigDescriptors.o
 .debug_frame   0x000010a4       0x3c ../../LUFA/Drivers/USB/Core/DeviceStandardReq.o
 .debug_frame   0x000010e0       0x24 ../../LUFA/Drivers/USB/Core/Events.o
 .debug_frame   0x00001104       0x2c ../../LUFA/Drivers/USB/Core/USBTask.o

.debug_str      0x00000000     0x2f5a
 *(.debug_str)
 .debug_str     0x00000000      0x3b9 AVRISP-MKII.o
                                0x411 (size before relaxing)
 .debug_str     0x000003b9      0x5b7 AVRISPDescriptors.o
                                0x72a (size before relaxing)
 .debug_str     0x00000970      0x19d Lib/V2Protocol.o
                                0x2c8 (size before relaxing)
 .debug_str     0x00000b0d      0x151 Lib/V2ProtocolParams.o
                                0x273 (size before relaxing)
 .debug_str     0x00000c5e      0x49b Lib/ISP/ISPProtocol.o
                                0x67e (size before relaxing)
 .debug_str     0x000010f9      0x1bc Lib/ISP/ISPTarget.o
                                0x3b8 (size before relaxing)
 .debug_str     0x000012b5      0x2f0 Lib/XPROG/XPROGProtocol.o
                                0x4db (size before relaxing)
 .debug_str     0x000015a5      0x111 Lib/XPROG/XPROGTarget.o
                                0x260 (size before relaxing)
 .debug_str     0x000016b6      0x197 Lib/XPROG/XMEGANVM.o
                                0x342 (size before relaxing)
 .debug_str     0x0000184d      0x113 Lib/XPROG/TINYNVM.o
                                0x2ba (size before relaxing)
 .debug_str     0x00001960      0x491 ../../LUFA/Drivers/USB/Class/Common/HIDParser.o
                                0x5fc (size before relaxing)
 .debug_str     0x00001df1       0x77 ../../LUFA/Drivers/USB/Core/AVR8/Device_AVR8.o
                                0x15f (size before relaxing)
 .debug_str     0x00001e68      0x50f ../../LUFA/Drivers/USB/Core/AVR8/EndpointStream_AVR8.o
                                0x775 (size before relaxing)
 .debug_str     0x00002377      0x27f ../../LUFA/Drivers/USB/Core/AVR8/Endpoint_AVR8.o
                                0x54e (size before relaxing)
 .debug_str     0x000025f6       0x2d ../../LUFA/Drivers/USB/Core/AVR8/Host_AVR8.o
                                0x107 (size before relaxing)
 .debug_str     0x00002623       0x33 ../../LUFA/Drivers/USB/Core/AVR8/PipeStream_AVR8.o
                                0x10d (size before relaxing)
 .debug_str     0x00002656       0x2d ../../LUFA/Drivers/USB/Core/AVR8/Pipe_AVR8.o
                                0x107 (size before relaxing)
 .debug_str     0x00002683      0x1ca ../../LUFA/Drivers/USB/Core/AVR8/USBController_AVR8.o
                                0x3f1 (size before relaxing)
 .debug_str     0x0000284d       0xd6 ../../LUFA/Drivers/USB/Core/AVR8/USBInterrupt_AVR8.o
                                0x3a9 (size before relaxing)
 .debug_str     0x00002923      0x227 ../../LUFA/Drivers/USB/Core/ConfigDescriptors.o
                                0x347 (size before relaxing)
 .debug_str     0x00002b4a      0x344 ../../LUFA/Drivers/USB/Core/DeviceStandardReq.o
                                0x680 (size before relaxing)
 .debug_str     0x00002e8e       0x34 ../../LUFA/Drivers/USB/Core/Events.o
                                0x10e (size before relaxing)
 .debug_str     0x00002ec2       0x2e ../../LUFA/Drivers/USB/Core/HostStandardReq.o
                                0x108 (size before relaxing)
 .debug_str     0x00002ef0       0x6a ../../LUFA/Drivers/USB/Core/USBTask.o
                                0x2b5 (size before relaxing)

.debug_loc      0x00000000     0x56d6
 *(.debug_loc)
 .debug_loc     0x00000000       0xc0 AVRISP-MKII.o
 .debug_loc     0x000000c0      0x1bc AVRISPDescriptors.o
 .debug_loc     0x0000027c      0x2af Lib/V2Protocol.o
 .debug_loc     0x0000052b      0x1f9 Lib/V2ProtocolParams.o
 .debug_loc     0x00000724      0x9a8 Lib/ISP/ISPProtocol.o
 .debug_loc     0x000010cc      0x286 Lib/ISP/ISPTarget.o
 .debug_loc     0x00001352      0x6b6 Lib/XPROG/XPROGProtocol.o
 .debug_loc     0x00001a08       0x6f Lib/XPROG/XPROGTarget.o
 .debug_loc     0x00001a77      0x6d0 Lib/XPROG/XMEGANVM.o
 .debug_loc     0x00002147      0x3ae Lib/XPROG/TINYNVM.o
 .debug_loc     0x000024f5      0xa21 ../../LUFA/Drivers/USB/Class/Common/HIDParser.o
 .debug_loc     0x00002f16     0x1cba ../../LUFA/Drivers/USB/Core/AVR8/EndpointStream_AVR8.o
 .debug_loc     0x00004bd0      0x274 ../../LUFA/Drivers/USB/Core/AVR8/Endpoint_AVR8.o
 .debug_loc     0x00004e44      0x1f7 ../../LUFA/Drivers/USB/Core/AVR8/USBInterrupt_AVR8.o
 .debug_loc     0x0000503b      0x433 ../../LUFA/Drivers/USB/Core/ConfigDescriptors.o
 .debug_loc     0x0000546e      0x21f ../../LUFA/Drivers/USB/Core/DeviceStandardReq.o
 .debug_loc     0x0000568d       0x49 ../../LUFA/Drivers/USB/Core/USBTask.o

.debug_macinfo
 *(.debug_macinfo)
OUTPUT(AVRISP-MKII.elf elf32-avr)
LOAD linker stubs

.debug_ranges   0x00000000      0x868
 .debug_ranges  0x00000000       0x48 AVRISP-MKII.o
 .debug_ranges  0x00000048       0x10 AVRISPDescriptors.o
 .debug_ranges  0x00000058       0x20 Lib/V2Protocol.o
 .debug_ranges  0x00000078       0x38 Lib/V2ProtocolParams.o
 .debug_ranges  0x000000b0       0x98 Lib/ISP/ISPProtocol.o
 .debug_ranges  0x00000148       0x60 Lib/ISP/ISPTarget.o
 .debug_ranges  0x000001a8       0x90 Lib/XPROG/XPROGProtocol.o
 .debug_ranges  0x00000238       0x50 Lib/XPROG/XPROGTarget.o
 .debug_ranges  0x00000288       0x60 Lib/XPROG/XMEGANVM.o
 .debug_ranges  0x000002e8       0x50 Lib/XPROG/TINYNVM.o
 .debug_ranges  0x00000338       0xc8 ../../LUFA/Drivers/USB/Class/Common/HIDParser.o
 .debug_ranges  0x00000400       0x10 ../../LUFA/Drivers/USB/Core/AVR8/Device_AVR8.o
 .debug_ranges  0x00000410      0x318 ../../LUFA/Drivers/USB/Core/AVR8/EndpointStream_AVR8.o
 .debug_ranges  0x00000728       0x78 ../../LUFA/Drivers/USB/Core/AVR8/Endpoint_AVR8.o
 .debug_ranges  0x000007a0       0x20 ../../LUFA/Drivers/USB/Core/AVR8/USBController_AVR8.o
 .debug_ranges  0x000007c0       0x20 ../../LUFA/Drivers/USB/Core/AVR8/USBInterrupt_AVR8.o
 .debug_ranges  0x000007e0       0x28 ../../LUFA/Drivers/USB/Core/ConfigDescriptors.o
 .debug_ranges  0x00000808       0x40 ../../LUFA/Drivers/USB/Core/DeviceStandardReq.o
 .debug_ranges  0x00000848       0x10 ../../LUFA/Drivers/USB/Core/Events.o
 .debug_ranges  0x00000858       0x10 ../../LUFA/Drivers/USB/Core/USBTask.o

Cross Reference Table

Symbol                                            File
AVRISP_ConfigurationDescriptor                    AVRISPDescriptors.o
AVRISP_DeviceDescriptor                           AVRISPDescriptors.o
AVRISP_GetDescriptor                              AVRISPDescriptors.o
                                                  AVRISP-MKII.o
AVRISP_LanguageString                             AVRISPDescriptors.o
AVRISP_ManufacturerString                         AVRISPDescriptors.o
AVRISP_ProductString                              AVRISPDescriptors.o
AVRISP_SerialString                               AVRISPDescriptors.o
AVRISP_Task                                       AVRISP-MKII.o
CALLBACK_HIDParser_FilterHIDReportItem            ../../LUFA/Drivers/USB/Class/Common/HIDParser.o
CALLBACK_USB_GetDescriptor                        AVRISP-MKII.o
                                                  ../../LUFA/Drivers/USB/Core/DeviceStandardReq.o
CurrentAddress                                    Lib/ISP/ISPTarget.o
                                                  Lib/ISP/ISPProtocol.o
                                                  Lib/V2Protocol.o
EVENT_USB_Device_ConfigurationChanged             AVRISP-MKII.o
                                                  ../../LUFA/Drivers/USB/Core/DeviceStandardReq.o
EVENT_USB_Device_Connect                          AVRISP-MKII.o
                                                  ../../LUFA/Drivers/USB/Core/AVR8/USBInterrupt_AVR8.o
EVENT_USB_Device_ControlRequest                   ../../LUFA/Drivers/USB/Core/Events.o
                                                  ../../LUFA/Drivers/USB/Core/DeviceStandardReq.o
EVENT_USB_Device_Disconnect                       AVRISP-MKII.o
                                                  ../../LUFA/Drivers/USB/Core/AVR8/USBInterrupt_AVR8.o
EVENT_USB_Device_Reset                            ../../LUFA/Drivers/USB/Core/Events.o
                                                  ../../LUFA/Drivers/USB/Core/AVR8/USBInterrupt_AVR8.o
EVENT_USB_Device_StartOfFrame                     ../../LUFA/Drivers/USB/Core/Events.o
EVENT_USB_Device_Suspend                          ../../LUFA/Drivers/USB/Core/Events.o
EVENT_USB_Device_WakeUp                           ../../LUFA/Drivers/USB/Core/Events.o
Endpoint_ClearEndpoints                           ../../LUFA/Drivers/USB/Core/AVR8/Endpoint_AVR8.o
Endpoint_ClearStatusStage                         ../../LUFA/Drivers/USB/Core/AVR8/Endpoint_AVR8.o
                                                  ../../LUFA/Drivers/USB/Core/DeviceStandardReq.o
Endpoint_ConfigureEndpointTable                   ../../LUFA/Drivers/USB/Core/AVR8/Endpoint_AVR8.o
Endpoint_ConfigureEndpoint_Prv                    ../../LUFA/Drivers/USB/Core/AVR8/Endpoint_AVR8.o
                                                  ../../LUFA/Drivers/USB/Core/AVR8/USBInterrupt_AVR8.o
                                                  ../../LUFA/Drivers/USB/Core/AVR8/USBController_AVR8.o
                                                  AVRISP-MKII.o
Endpoint_Discard_Stream                           ../../LUFA/Drivers/USB/Core/AVR8/EndpointStream_AVR8.o
Endpoint_Null_Stream                              ../../LUFA/Drivers/USB/Core/AVR8/EndpointStream_AVR8.o
Endpoint_Read_Control_EStream_BE                  ../../LUFA/Drivers/USB/Core/AVR8/EndpointStream_AVR8.o
Endpoint_Read_Control_EStream_LE                  ../../LUFA/Drivers/USB/Core/AVR8/EndpointStream_AVR8.o
Endpoint_Read_Control_Stream_BE                   ../../LUFA/Drivers/USB/Core/AVR8/EndpointStream_AVR8.o
Endpoint_Read_Control_Stream_LE                   ../../LUFA/Drivers/USB/Core/AVR8/EndpointStream_AVR8.o
Endpoint_Read_EStream_BE                          ../../LUFA/Drivers/USB/Core/AVR8/EndpointStream_AVR8.o
Endpoint_Read_EStream_LE                          ../../LUFA/Drivers/USB/Core/AVR8/EndpointStream_AVR8.o
Endpoint_Read_Stream_BE                           ../../LUFA/Drivers/USB/Core/AVR8/EndpointStream_AVR8.o
                                                  Lib/V2Protocol.o
Endpoint_Read_Stream_LE                           ../../LUFA/Drivers/USB/Core/AVR8/EndpointStream_AVR8.o
                                                  Lib/XPROG/XPROGProtocol.o
                                                  Lib/ISP/ISPProtocol.o
Endpoint_WaitUntilReady                           ../../LUFA/Drivers/USB/Core/AVR8/Endpoint_AVR8.o
                                                  ../../LUFA/Drivers/USB/Core/AVR8/EndpointStream_AVR8.o
                                                  Lib/XPROG/XPROGProtocol.o
                                                  Lib/ISP/ISPProtocol.o
                                                  Lib/V2Protocol.o
Endpoint_Write_Control_EStream_BE                 ../../LUFA/Drivers/USB/Core/AVR8/EndpointStream_AVR8.o
Endpoint_Write_Control_EStream_LE                 ../../LUFA/Drivers/USB/Core/AVR8/EndpointStream_AVR8.o
                                                  ../../LUFA/Drivers/USB/Core/DeviceStandardReq.o
Endpoint_Write_Control_PStream_BE                 ../../LUFA/Drivers/USB/Core/AVR8/EndpointStream_AVR8.o
Endpoint_Write_Control_PStream_LE                 ../../LUFA/Drivers/USB/Core/AVR8/EndpointStream_AVR8.o
                                                  ../../LUFA/Drivers/USB/Core/DeviceStandardReq.o
Endpoint_Write_Control_Stream_BE                  ../../LUFA/Drivers/USB/Core/AVR8/EndpointStream_AVR8.o
Endpoint_Write_Control_Stream_LE                  ../../LUFA/Drivers/USB/Core/AVR8/EndpointStream_AVR8.o
                                                  ../../LUFA/Drivers/USB/Core/DeviceStandardReq.o
Endpoint_Write_EStream_BE                         ../../LUFA/Drivers/USB/Core/AVR8/EndpointStream_AVR8.o
Endpoint_Write_EStream_LE                         ../../LUFA/Drivers/USB/Core/AVR8/EndpointStream_AVR8.o
Endpoint_Write_PStream_BE                         ../../LUFA/Drivers/USB/Core/AVR8/EndpointStream_AVR8.o
Endpoint_Write_PStream_LE                         ../../LUFA/Drivers/USB/Core/AVR8/EndpointStream_AVR8.o
Endpoint_Write_Stream_BE                          ../../LUFA/Drivers/USB/Core/AVR8/EndpointStream_AVR8.o
Endpoint_Write_Stream_LE                          ../../LUFA/Drivers/USB/Core/AVR8/EndpointStream_AVR8.o
                                                  Lib/XPROG/XPROGProtocol.o
                                                  Lib/V2Protocol.o
HardwareSPIMode                                   Lib/ISP/ISPTarget.o
                                                  Lib/ISP/ISPProtocol.o
ISPProtocol_ChipErase                             Lib/ISP/ISPProtocol.o
                                                  Lib/V2Protocol.o
ISPProtocol_DelayMS                               Lib/ISP/ISPProtocol.o
                                                  Lib/ISP/ISPTarget.o
ISPProtocol_EnterISPMode                          Lib/ISP/ISPProtocol.o
                                                  Lib/V2Protocol.o
ISPProtocol_LeaveISPMode                          Lib/ISP/ISPProtocol.o
                                                  Lib/V2Protocol.o
ISPProtocol_ProgramMemory                         Lib/ISP/ISPProtocol.o
                                                  Lib/V2Protocol.o
ISPProtocol_ReadFuseLockSigOSCCAL                 Lib/ISP/ISPProtocol.o
                                                  Lib/V2Protocol.o
ISPProtocol_ReadMemory                            Lib/ISP/ISPProtocol.o
                                                  Lib/V2Protocol.o
ISPProtocol_SPIMulti                              Lib/ISP/ISPProtocol.o
                                                  Lib/V2Protocol.o
ISPProtocol_WriteFuseLock                         Lib/ISP/ISPProtocol.o
                                                  Lib/V2Protocol.o
ISPTarget_ChangeTargetResetLine                   Lib/ISP/ISPTarget.o
                                                  Lib/ISP/ISPProtocol.o
ISPTarget_ConfigureRescueClock                    Lib/ISP/ISPTarget.o
                                                  Lib/V2Protocol.o
ISPTarget_ConfigureSoftwareSPI                    Lib/ISP/ISPTarget.o
ISPTarget_DisableTargetISP                        Lib/ISP/ISPTarget.o
                                                  Lib/ISP/ISPProtocol.o
ISPTarget_EnableTargetISP                         Lib/ISP/ISPTarget.o
                                                  Lib/ISP/ISPProtocol.o
ISPTarget_LoadExtendedAddress                     Lib/ISP/ISPTarget.o
                                                  Lib/ISP/ISPProtocol.o
ISPTarget_TransferSoftSPIByte                     Lib/ISP/ISPTarget.o
                                                  Lib/ISP/ISPProtocol.o
ISPTarget_WaitForProgComplete                     Lib/ISP/ISPTarget.o
                                                  Lib/ISP/ISPProtocol.o
ISPTarget_WaitWhileTargetBusy                     Lib/ISP/ISPTarget.o
                                                  Lib/ISP/ISPProtocol.o
IsSending                                         Lib/XPROG/XPROGTarget.o
MustLoadExtendedAddress                           Lib/ISP/ISPProtocol.o
                                                  Lib/V2Protocol.o
SetupHardware                                     AVRISP-MKII.o
TINYNVM_DisableTPI                                Lib/XPROG/TINYNVM.o
                                                  Lib/XPROG/XPROGProtocol.o
TINYNVM_EnableTPI                                 Lib/XPROG/TINYNVM.o
                                                  Lib/XPROG/XPROGProtocol.o
TINYNVM_EraseMemory                               Lib/XPROG/TINYNVM.o
                                                  Lib/XPROG/XPROGProtocol.o
TINYNVM_ReadMemory                                Lib/XPROG/TINYNVM.o
                                                  Lib/XPROG/XPROGProtocol.o
TINYNVM_WaitWhileNVMBusBusy                       Lib/XPROG/TINYNVM.o
TINYNVM_WaitWhileNVMControllerBusy                Lib/XPROG/TINYNVM.o
TINYNVM_WriteMemory                               Lib/XPROG/TINYNVM.o
                                                  Lib/XPROG/XPROGProtocol.o
USB_ControlRequest                                ../../LUFA/Drivers/USB/Core/USBTask.o
                                                  ../../LUFA/Drivers/USB/Core/DeviceStandardReq.o
                                                  ../../LUFA/Drivers/USB/Core/AVR8/Endpoint_AVR8.o
                                                  ../../LUFA/Drivers/USB/Core/AVR8/EndpointStream_AVR8.o
USB_Device_ConfigurationNumber                    ../../LUFA/Drivers/USB/Core/DeviceStandardReq.o
                                                  ../../LUFA/Drivers/USB/Core/AVR8/USBInterrupt_AVR8.o
                                                  ../../LUFA/Drivers/USB/Core/AVR8/USBController_AVR8.o
USB_Device_ProcessControlRequest                  ../../LUFA/Drivers/USB/Core/DeviceStandardReq.o
                                                  ../../LUFA/Drivers/USB/Core/USBTask.o
USB_Device_SendRemoteWakeup                       ../../LUFA/Drivers/USB/Core/AVR8/Device_AVR8.o
USB_Disable                                       ../../LUFA/Drivers/USB/Core/AVR8/USBController_AVR8.o
USB_Event_Stub                                    ../../LUFA/Drivers/USB/Core/Events.o
USB_GetHIDReportItemInfo                          ../../LUFA/Drivers/USB/Class/Common/HIDParser.o
USB_GetHIDReportSize                              ../../LUFA/Drivers/USB/Class/Common/HIDParser.o
USB_GetNextDescriptorComp                         ../../LUFA/Drivers/USB/Core/ConfigDescriptors.o
USB_GetNextDescriptorOfType                       ../../LUFA/Drivers/USB/Core/ConfigDescriptors.o
USB_GetNextDescriptorOfTypeAfter                  ../../LUFA/Drivers/USB/Core/ConfigDescriptors.o
USB_GetNextDescriptorOfTypeBefore                 ../../LUFA/Drivers/USB/Core/ConfigDescriptors.o
USB_INT_ClearAllInterrupts                        ../../LUFA/Drivers/USB/Core/AVR8/USBInterrupt_AVR8.o
                                                  ../../LUFA/Drivers/USB/Core/AVR8/USBController_AVR8.o
USB_INT_DisableAllInterrupts                      ../../LUFA/Drivers/USB/Core/AVR8/USBInterrupt_AVR8.o
                                                  ../../LUFA/Drivers/USB/Core/AVR8/USBController_AVR8.o
USB_Init                                          ../../LUFA/Drivers/USB/Core/AVR8/USBController_AVR8.o
                                                  AVRISP-MKII.o
USB_IsInitialized                                 ../../LUFA/Drivers/USB/Core/USBTask.o
                                                  ../../LUFA/Drivers/USB/Core/AVR8/USBController_AVR8.o
USB_ProcessHIDReport                              ../../LUFA/Drivers/USB/Class/Common/HIDParser.o
USB_ResetInterface                                ../../LUFA/Drivers/USB/Core/AVR8/USBController_AVR8.o
USB_SetHIDReportItemInfo                          ../../LUFA/Drivers/USB/Class/Common/HIDParser.o
USB_USBTask                                       ../../LUFA/Drivers/USB/Core/USBTask.o
                                                  ../../LUFA/Drivers/USB/Core/AVR8/EndpointStream_AVR8.o
                                                  AVRISP-MKII.o
V2Params_GetParameterPrivileges                   Lib/V2ProtocolParams.o
                                                  Lib/V2Protocol.o
V2Params_GetParameterValue                        Lib/V2ProtocolParams.o
                                                  Lib/ISP/ISPTarget.o
                                                  Lib/V2Protocol.o
V2Params_LoadNonVolatileParamValues               Lib/V2ProtocolParams.o
                                                  Lib/V2Protocol.o
V2Params_SetParameterValue                        Lib/V2ProtocolParams.o
                                                  Lib/V2Protocol.o
V2Params_UpdateParamValues                        Lib/V2ProtocolParams.o
                                                  AVRISP-MKII.o
V2Protocol_Init                                   Lib/V2Protocol.o
                                                  AVRISP-MKII.o
V2Protocol_ProcessCommand                         Lib/V2Protocol.o
                                                  AVRISP-MKII.o
XMEGANVM_DisablePDI                               Lib/XPROG/XMEGANVM.o
                                                  Lib/XPROG/XPROGProtocol.o
XMEGANVM_EnablePDI                                Lib/XPROG/XMEGANVM.o
                                                  Lib/XPROG/XPROGProtocol.o
XMEGANVM_EraseMemory                              Lib/XPROG/XMEGANVM.o
                                                  Lib/XPROG/XPROGProtocol.o
XMEGANVM_GetMemoryCRC                             Lib/XPROG/XMEGANVM.o
                                                  Lib/XPROG/XPROGProtocol.o
XMEGANVM_ReadMemory                               Lib/XPROG/XMEGANVM.o
                                                  Lib/XPROG/XPROGProtocol.o
XMEGANVM_WaitWhileNVMBusBusy                      Lib/XPROG/XMEGANVM.o
XMEGANVM_WaitWhileNVMControllerBusy               Lib/XPROG/XMEGANVM.o
XMEGANVM_WriteByteMemory                          Lib/XPROG/XMEGANVM.o
                                                  Lib/XPROG/XPROGProtocol.o
XMEGANVM_WritePageMemory                          Lib/XPROG/XMEGANVM.o
                                                  Lib/XPROG/XPROGProtocol.o
XPROGProtocol_Command                             Lib/XPROG/XPROGProtocol.o
                                                  Lib/V2Protocol.o
XPROGProtocol_SetMode                             Lib/XPROG/XPROGProtocol.o
                                                  Lib/V2Protocol.o
XPROGTarget_DisableTargetPDI                      Lib/XPROG/XPROGTarget.o
                                                  Lib/XPROG/XMEGANVM.o
XPROGTarget_DisableTargetTPI                      Lib/XPROG/XPROGTarget.o
                                                  Lib/XPROG/TINYNVM.o
XPROGTarget_EnableTargetPDI                       Lib/XPROG/XPROGTarget.o
                                                  Lib/XPROG/XMEGANVM.o
XPROGTarget_EnableTargetTPI                       Lib/XPROG/XPROGTarget.o
                                                  Lib/XPROG/TINYNVM.o
XPROGTarget_ReceiveByte                           Lib/XPROG/XPROGTarget.o
                                                  Lib/XPROG/TINYNVM.o
                                                  Lib/XPROG/XMEGANVM.o
XPROGTarget_SendByte                              Lib/XPROG/XPROGTarget.o
                                                  Lib/XPROG/TINYNVM.o
                                                  Lib/XPROG/XMEGANVM.o
XPROGTarget_SendIdle                              Lib/XPROG/XPROGTarget.o
XPROG_Param_EEPageSize                            Lib/XPROG/XPROGProtocol.o
                                                  Lib/XPROG/XMEGANVM.o
XPROG_Param_NVMBase                               Lib/XPROG/XPROGProtocol.o
                                                  Lib/XPROG/XMEGANVM.o
XPROG_Param_NVMCMDRegAddr                         Lib/XPROG/XPROGProtocol.o
                                                  Lib/XPROG/TINYNVM.o
XPROG_Param_NVMCSRRegAddr                         Lib/XPROG/XPROGProtocol.o
                                                  Lib/XPROG/TINYNVM.o
XPROG_SelectedProtocol                            Lib/XPROG/XPROGProtocol.o
__bad_interrupt                                   /usr/local/CrossPack-AVR-20130212/lib/gcc/avr/4.6.2/../../../../avr/lib/avr35/crtusb162.o
__bss_end                                         /usr/local/CrossPack-AVR-20130212/lib/gcc/avr/4.6.2/avr35/libgcc.a(_clear_bss.o)
__bss_start                                       /usr/local/CrossPack-AVR-20130212/lib/gcc/avr/4.6.2/avr35/libgcc.a(_clear_bss.o)
__data_end                                        /usr/local/CrossPack-AVR-20130212/lib/gcc/avr/4.6.2/avr35/libgcc.a(_copy_data.o)
__data_load_start                                 /usr/local/CrossPack-AVR-20130212/lib/gcc/avr/4.6.2/avr35/libgcc.a(_copy_data.o)
__data_start                                      /usr/local/CrossPack-AVR-20130212/lib/gcc/avr/4.6.2/avr35/libgcc.a(_copy_data.o)
__do_clear_bss                                    /usr/local/CrossPack-AVR-20130212/lib/gcc/avr/4.6.2/avr35/libgcc.a(_clear_bss.o)
                                                  ../../LUFA/Drivers/USB/Core/USBTask.o
                                                  ../../LUFA/Drivers/USB/Core/HostStandardReq.o
                                                  ../../LUFA/Drivers/USB/Core/Events.o
                                                  ../../LUFA/Drivers/USB/Core/DeviceStandardReq.o
                                                  ../../LUFA/Drivers/USB/Core/ConfigDescriptors.o
                                                  ../../LUFA/Drivers/USB/Core/AVR8/USBInterrupt_AVR8.o
                                                  ../../LUFA/Drivers/USB/Core/AVR8/USBController_AVR8.o
                                                  ../../LUFA/Drivers/USB/Core/AVR8/Pipe_AVR8.o
                                                  ../../LUFA/Drivers/USB/Core/AVR8/PipeStream_AVR8.o
                                                  ../../LUFA/Drivers/USB/Core/AVR8/Host_AVR8.o
                                                  ../../LUFA/Drivers/USB/Core/AVR8/Endpoint_AVR8.o
                                                  ../../LUFA/Drivers/USB/Core/AVR8/EndpointStream_AVR8.o
                                                  ../../LUFA/Drivers/USB/Core/AVR8/Device_AVR8.o
                                                  ../../LUFA/Drivers/USB/Class/Common/HIDParser.o
                                                  Lib/XPROG/TINYNVM.o
                                                  Lib/XPROG/XMEGANVM.o
                                                  Lib/XPROG/XPROGTarget.o
                                                  Lib/XPROG/XPROGProtocol.o
                                                  Lib/ISP/ISPTarget.o
                                                  Lib/ISP/ISPProtocol.o
                                                  Lib/V2ProtocolParams.o
                                                  Lib/V2Protocol.o
                                                  AVRISPDescriptors.o
                                                  AVRISP-MKII.o
__do_copy_data                                    /usr/local/CrossPack-AVR-20130212/lib/gcc/avr/4.6.2/avr35/libgcc.a(_copy_data.o)
                                                  ../../LUFA/Drivers/USB/Core/USBTask.o
                                                  ../../LUFA/Drivers/USB/Core/HostStandardReq.o
                                                  ../../LUFA/Drivers/USB/Core/Events.o
                                                  ../../LUFA/Drivers/USB/Core/DeviceStandardReq.o
                                                  ../../LUFA/Drivers/USB/Core/ConfigDescriptors.o
                                                  ../../LUFA/Drivers/USB/Core/AVR8/USBInterrupt_AVR8.o
                                                  ../../LUFA/Drivers/USB/Core/AVR8/USBController_AVR8.o
                                                  ../../LUFA/Drivers/USB/Core/AVR8/Pipe_AVR8.o
                                                  ../../LUFA/Drivers/USB/Core/AVR8/PipeStream_AVR8.o
                                                  ../../LUFA/Drivers/USB/Core/AVR8/Host_AVR8.o
                                                  ../../LUFA/Drivers/USB/Core/AVR8/Endpoint_AVR8.o
                                                  ../../LUFA/Drivers/USB/Core/AVR8/EndpointStream_AVR8.o
                                                  ../../LUFA/Drivers/USB/Core/AVR8/Device_AVR8.o
                                                  ../../LUFA/Drivers/USB/Class/Common/HIDParser.o
                                                  Lib/XPROG/TINYNVM.o
                                                  Lib/XPROG/XMEGANVM.o
                                                  Lib/XPROG/XPROGTarget.o
                                                  Lib/XPROG/XPROGProtocol.o
                                                  Lib/ISP/ISPTarget.o
                                                  Lib/ISP/ISPProtocol.o
                                                  Lib/V2ProtocolParams.o
                                                  Lib/V2Protocol.o
                                                  AVRISPDescriptors.o
                                                  AVRISP-MKII.o
__eerd_byte_usb162                                /usr/local/CrossPack-AVR-20130212/lib/gcc/avr/4.6.2/../../../../avr/lib/avr35/libc.a(eerd_byte_at90usb162.o)
                                                  ../../LUFA/Drivers/USB/Core/AVR8/EndpointStream_AVR8.o
                                                  Lib/V2ProtocolParams.o
__eeupd_byte_usb162                               /usr/local/CrossPack-AVR-20130212/lib/gcc/avr/4.6.2/../../../../avr/lib/avr35/libc.a(eeupd_byte_at90usb162.o)
                                                  ../../LUFA/Drivers/USB/Core/AVR8/EndpointStream_AVR8.o
                                                  Lib/V2ProtocolParams.o
__eeupd_r18_usb162                                /usr/local/CrossPack-AVR-20130212/lib/gcc/avr/4.6.2/../../../../avr/lib/avr35/libc.a(eeupd_byte_at90usb162.o)
__heap_end                                        /usr/local/CrossPack-AVR-20130212/lib/gcc/avr/4.6.2/../../../../avr/lib/avr35/crtusb162.o
__init                                            /usr/local/CrossPack-AVR-20130212/lib/gcc/avr/4.6.2/../../../../avr/lib/avr35/crtusb162.o
__mulhi3                                          /usr/local/CrossPack-AVR-20130212/lib/gcc/avr/4.6.2/avr35/libgcc.a(_mulhi3.o)
                                                  ../../LUFA/Drivers/USB/Class/Common/HIDParser.o
__stack                                           /usr/local/CrossPack-AVR-20130212/lib/gcc/avr/4.6.2/../../../../avr/lib/avr35/crtusb162.o
__vector_1                                        /usr/local/CrossPack-AVR-20130212/lib/gcc/avr/4.6.2/../../../../avr/lib/avr35/crtusb162.o
__vector_10                                       /usr/local/CrossPack-AVR-20130212/lib/gcc/avr/4.6.2/../../../../avr/lib/avr35/crtusb162.o
__vector_11                                       ../../LUFA/Drivers/USB/Core/AVR8/USBInterrupt_AVR8.o
                                                  /usr/local/CrossPack-AVR-20130212/lib/gcc/avr/4.6.2/../../../../avr/lib/avr35/crtusb162.o
__vector_12                                       /usr/local/CrossPack-AVR-20130212/lib/gcc/avr/4.6.2/../../../../avr/lib/avr35/crtusb162.o
__vector_13                                       /usr/local/CrossPack-AVR-20130212/lib/gcc/avr/4.6.2/../../../../avr/lib/avr35/crtusb162.o
__vector_14                                       /usr/local/CrossPack-AVR-20130212/lib/gcc/avr/4.6.2/../../../../avr/lib/avr35/crtusb162.o
__vector_15                                       Lib/ISP/ISPTarget.o
                                                  /usr/local/CrossPack-AVR-20130212/lib/gcc/avr/4.6.2/../../../../avr/lib/avr35/crtusb162.o
__vector_16                                       /usr/local/CrossPack-AVR-20130212/lib/gcc/avr/4.6.2/../../../../avr/lib/avr35/crtusb162.o
__vector_17                                       /usr/local/CrossPack-AVR-20130212/lib/gcc/avr/4.6.2/../../../../avr/lib/avr35/crtusb162.o
__vector_18                                       /usr/local/CrossPack-AVR-20130212/lib/gcc/avr/4.6.2/../../../../avr/lib/avr35/crtusb162.o
__vector_19                                       Lib/V2Protocol.o
                                                  /usr/local/CrossPack-AVR-20130212/lib/gcc/avr/4.6.2/../../../../avr/lib/avr35/crtusb162.o
__vector_2                                        /usr/local/CrossPack-AVR-20130212/lib/gcc/avr/4.6.2/../../../../avr/lib/avr35/crtusb162.o
__vector_20                                       /usr/local/CrossPack-AVR-20130212/lib/gcc/avr/4.6.2/../../../../avr/lib/avr35/crtusb162.o
__vector_21                                       /usr/local/CrossPack-AVR-20130212/lib/gcc/avr/4.6.2/../../../../avr/lib/avr35/crtusb162.o
__vector_22                                       /usr/local/CrossPack-AVR-20130212/lib/gcc/avr/4.6.2/../../../../avr/lib/avr35/crtusb162.o
__vector_23                                       /usr/local/CrossPack-AVR-20130212/lib/gcc/avr/4.6.2/../../../../avr/lib/avr35/crtusb162.o
__vector_24                                       /usr/local/CrossPack-AVR-20130212/lib/gcc/avr/4.6.2/../../../../avr/lib/avr35/crtusb162.o
__vector_25                                       /usr/local/CrossPack-AVR-20130212/lib/gcc/avr/4.6.2/../../../../avr/lib/avr35/crtusb162.o
__vector_26                                       /usr/local/CrossPack-AVR-20130212/lib/gcc/avr/4.6.2/../../../../avr/lib/avr35/crtusb162.o
__vector_27                                       /usr/local/CrossPack-AVR-20130212/lib/gcc/avr/4.6.2/../../../../avr/lib/avr35/crtusb162.o
__vector_28                                       /usr/local/CrossPack-AVR-20130212/lib/gcc/avr/4.6.2/../../../../avr/lib/avr35/crtusb162.o
__vector_3                                        /usr/local/CrossPack-AVR-20130212/lib/gcc/avr/4.6.2/../../../../avr/lib/avr35/crtusb162.o
__vector_4                                        /usr/local/CrossPack-AVR-20130212/lib/gcc/avr/4.6.2/../../../../avr/lib/avr35/crtusb162.o
__vector_5                                        /usr/local/CrossPack-AVR-20130212/lib/gcc/avr/4.6.2/../../../../avr/lib/avr35/crtusb162.o
__vector_6                                        /usr/local/CrossPack-AVR-20130212/lib/gcc/avr/4.6.2/../../../../avr/lib/avr35/crtusb162.o
__vector_7                                        /usr/local/CrossPack-AVR-20130212/lib/gcc/avr/4.6.2/../../../../avr/lib/avr35/crtusb162.o
__vector_8                                        /usr/local/CrossPack-AVR-20130212/lib/gcc/avr/4.6.2/../../../../avr/lib/avr35/crtusb162.o
__vector_9                                        /usr/local/CrossPack-AVR-20130212/lib/gcc/avr/4.6.2/../../../../avr/lib/avr35/crtusb162.o
__vector_default                                  /usr/local/CrossPack-AVR-20130212/lib/gcc/avr/4.6.2/../../../../avr/lib/avr35/crtusb162.o
__vectors                                         /usr/local/CrossPack-AVR-20130212/lib/gcc/avr/4.6.2/../../../../avr/lib/avr35/crtusb162.o
_exit                                             /usr/local/CrossPack-AVR-20130212/lib/gcc/avr/4.6.2/avr35/libgcc.a(_exit.o)
exit                                              /usr/local/CrossPack-AVR-20130212/lib/gcc/avr/4.6.2/avr35/libgcc.a(_exit.o)
                                                  /usr/local/CrossPack-AVR-20130212/lib/gcc/avr/4.6.2/../../../../avr/lib/avr35/crtusb162.o
main                                              AVRISP-MKII.o
                                                  /usr/local/CrossPack-AVR-20130212/lib/gcc/avr/4.6.2/../../../../avr/lib/avr35/crtusb162.o
