   1               		.file	"ff.c"
   2               	__SREG__ = 0x3f
   3               	__SP_H__ = 0x3e
   4               	__SP_L__ = 0x3d
   5               	__CCP__  = 0x34
   6               	__tmp_reg__ = 0
   7               	__zero_reg__ = 1
  15               	.Ltext0:
  16               		.section	.text.mem_cpy,"ax",@progbits
  18               	mem_cpy:
  19               	.LFB128:
  20               	.LSM0:
  21               	.LVL0:
  22 0000 0F93      		push r16
  23 0002 1F93      		push r17
  24 0004 CF93      		push r28
  25 0006 DF93      		push r29
  26               	/* prologue: function */
  27               	/* frame size = 0 */
  28 0008 8C01      		movw r16,r24
  29 000a EB01      		movw r28,r22
  30 000c BA01      		movw r22,r20
  31               	.LVL1:
  32               	.LSM1:
  33 000e 20E0      		ldi r18,lo8(0)
  34 0010 30E0      		ldi r19,hi8(0)
  35 0012 00C0      		rjmp .L2
  36               	.LVL2:
  37               	.L3:
  38               	.LSM2:
  39 0014 F801      		movw r30,r16
  40 0016 E20F      		add r30,r18
  41 0018 F31F      		adc r31,r19
  42 001a DE01      		movw r26,r28
  43 001c A20F      		add r26,r18
  44 001e B31F      		adc r27,r19
  45 0020 8D91      		ld r24,X+
  46 0022 9C91      		ld r25,X
  47 0024 9183      		std Z+1,r25
  48 0026 8083      		st Z,r24
  49 0028 4250      		subi r20,lo8(-(-2))
  50 002a 5040      		sbci r21,hi8(-(-2))
  51 002c 2E5F      		subi r18,lo8(-(2))
  52 002e 3F4F      		sbci r19,hi8(-(2))
  53               	.LVL3:
  54               	.L2:
  55               	.LSM3:
  56 0030 4230      		cpi r20,2
  57 0032 5105      		cpc r21,__zero_reg__
  58 0034 00F4      		brsh .L3
  59               	.LSM4:
  60 0036 CB01      		movw r24,r22
  61 0038 8E7F      		andi r24,lo8(-2)
  62 003a DE01      		movw r26,r28
  63               	.LVL4:
  64 003c A80F      		add r26,r24
  65 003e B91F      		adc r27,r25
  66 0040 F801      		movw r30,r16
  67               	.LVL5:
  68 0042 E80F      		add r30,r24
  69 0044 F91F      		adc r31,r25
  70 0046 AB01      		movw r20,r22
  71 0048 481B      		sub r20,r24
  72 004a 590B      		sbc r21,r25
  73 004c 00C0      		rjmp .L4
  74               	.L5:
  75               	.LSM5:
  76 004e 8D91      		ld r24,X+
  77 0050 8193      		st Z+,r24
  78               	.L4:
  79               	.LSM6:
  80 0052 4150      		subi r20,lo8(-(-1))
  81 0054 5040      		sbci r21,hi8(-(-1))
  82 0056 8FEF      		ldi r24,hi8(-1)
  83 0058 4F3F      		cpi r20,lo8(-1)
  84 005a 5807      		cpc r21,r24
  85 005c 01F4      		brne .L5
  86               	/* epilogue start */
  87               	.LSM7:
  88 005e DF91      		pop r29
  89 0060 CF91      		pop r28
  90               	.LVL6:
  91 0062 1F91      		pop r17
  92 0064 0F91      		pop r16
  93               	.LVL7:
  94 0066 0895      		ret
  95               	.LFE128:
  97               		.section	.text.mem_set,"ax",@progbits
  99               	mem_set:
 100               	.LFB129:
 101               	.LSM8:
 102               	.LVL8:
 103               	/* prologue: function */
 104               	/* frame size = 0 */
 105               	.LSM9:
 106 0000 FC01      		movw r30,r24
 107               	.LVL9:
 108 0002 00C0      		rjmp .L8
 109               	.LVL10:
 110               	.L9:
 111               	.LSM10:
 112 0004 6193      		st Z+,r22
 113               	.LVL11:
 114               	.L8:
 115               	.LSM11:
 116 0006 4150      		subi r20,lo8(-(-1))
 117 0008 5040      		sbci r21,hi8(-(-1))
 118 000a 8FEF      		ldi r24,hi8(-1)
 119 000c 4F3F      		cpi r20,lo8(-1)
 120 000e 5807      		cpc r21,r24
 121               	.LVL12:
 122 0010 01F4      		brne .L9
 123               	/* epilogue start */
 124               	.LSM12:
 125 0012 0895      		ret
 126               	.LFE129:
 128               		.section	.text.clust2sect,"ax",@progbits
 129               	.global	clust2sect
 131               	clust2sect:
 132               	.LFB138:
 133               	.LSM13:
 134               	.LVL13:
 135 0000 EF92      		push r14
 136 0002 FF92      		push r15
 137 0004 0F93      		push r16
 138 0006 1F93      		push r17
 139 0008 CF93      		push r28
 140 000a DF93      		push r29
 141               	/* prologue: function */
 142               	/* frame size = 0 */
 143 000c EC01      		movw r28,r24
 144 000e 7A01      		movw r14,r20
 145 0010 8B01      		movw r16,r22
 146               	.LSM14:
 147 0012 8EEF      		ldi r24,lo8(-2)
 148 0014 9FEF      		ldi r25,hi8(-2)
 149 0016 AFEF      		ldi r26,hlo8(-2)
 150 0018 BFEF      		ldi r27,hhi8(-2)
 151               	.LVL14:
 152 001a E80E      		add r14,r24
 153 001c F91E      		adc r15,r25
 154 001e 0A1F      		adc r16,r26
 155 0020 1B1F      		adc r17,r27
 156               	.LVL15:
 157               	.LSM15:
 158 0022 8E89      		ldd r24,Y+22
 159 0024 9F89      		ldd r25,Y+23
 160 0026 A88D      		ldd r26,Y+24
 161 0028 B98D      		ldd r27,Y+25
 162 002a 0297      		sbiw r24,2
 163 002c A109      		sbc r26,__zero_reg__
 164 002e B109      		sbc r27,__zero_reg__
 165 0030 E816      		cp r14,r24
 166 0032 F906      		cpc r15,r25
 167 0034 0A07      		cpc r16,r26
 168 0036 1B07      		cpc r17,r27
 169 0038 00F0      		brlo .L12
 170 003a 20E0      		ldi r18,lo8(0)
 171 003c 30E0      		ldi r19,hi8(0)
 172 003e 40E0      		ldi r20,hlo8(0)
 173 0040 50E0      		ldi r21,hhi8(0)
 174 0042 00C0      		rjmp .L13
 175               	.L12:
 176               	.LSM16:
 177 0044 2A81      		ldd r18,Y+2
 178 0046 30E0      		ldi r19,lo8(0)
 179 0048 40E0      		ldi r20,lo8(0)
 180 004a 50E0      		ldi r21,hi8(0)
 181 004c C801      		movw r24,r16
 182 004e B701      		movw r22,r14
 183 0050 0E94 0000 		call __mulsi3
 184 0054 9B01      		movw r18,r22
 185 0056 AC01      		movw r20,r24
 186 0058 8EA1      		ldd r24,Y+38
 187 005a 9FA1      		ldd r25,Y+39
 188 005c A8A5      		ldd r26,Y+40
 189 005e B9A5      		ldd r27,Y+41
 190 0060 280F      		add r18,r24
 191 0062 391F      		adc r19,r25
 192 0064 4A1F      		adc r20,r26
 193 0066 5B1F      		adc r21,r27
 194               	.L13:
 195               	.LSM17:
 196 0068 B901      		movw r22,r18
 197 006a CA01      		movw r24,r20
 198               	/* epilogue start */
 199 006c DF91      		pop r29
 200 006e CF91      		pop r28
 201               	.LVL16:
 202 0070 1F91      		pop r17
 203 0072 0F91      		pop r16
 204 0074 FF90      		pop r15
 205 0076 EF90      		pop r14
 206               	.LVL17:
 207 0078 0895      		ret
 208               	.LFE138:
 210               		.section	.text.f_mount,"ax",@progbits
 211               	.global	f_mount
 213               	f_mount:
 214               	.LFB148:
 215               	.LSM18:
 216               	.LVL18:
 217               	/* prologue: function */
 218               	/* frame size = 0 */
 219 0000 DB01      		movw r26,r22
 220               	.LSM19:
 221 0002 8823      		tst r24
 222 0004 01F0      		breq .L16
 223               	.LVL19:
 224 0006 8BE0      		ldi r24,lo8(11)
 225               	.LVL20:
 226 0008 0895      		ret
 227               	.LVL21:
 228               	.L16:
 229               	.LSM20:
 230 000a E091 0000 		lds r30,FatFs
 231 000e F091 0000 		lds r31,(FatFs)+1
 232               	.LVL22:
 233               	.LSM21:
 234 0012 3097      		sbiw r30,0
 235 0014 01F0      		breq .L18
 236               	.LSM22:
 237 0016 1082      		st Z,__zero_reg__
 238               	.L18:
 239               	.LSM23:
 240 0018 1097      		sbiw r26,0
 241 001a 01F0      		breq .L19
 242               	.LSM24:
 243 001c 1C92      		st X,__zero_reg__
 244               	.L19:
 245               	.LSM25:
 246 001e B093 0000 		sts (FatFs)+1,r27
 247 0022 A093 0000 		sts FatFs,r26
 248 0026 80E0      		ldi r24,lo8(0)
 249               	.LVL23:
 250               	.LSM26:
 251 0028 0895      		ret
 252               	.LFE148:
 254               		.section	.text.validate,"ax",@progbits
 256               	validate:
 257               	.LFB147:
 258               	.LSM27:
 259               	.LVL24:
 260               	/* prologue: function */
 261               	/* frame size = 0 */
 262 0000 FC01      		movw r30,r24
 263               	.LSM28:
 264 0002 0097      		sbiw r24,0
 265 0004 01F0      		breq .L22
 266 0006 8081      		ld r24,Z
 267               	.LVL25:
 268 0008 8823      		tst r24
 269 000a 01F0      		breq .L22
 270 000c 8681      		ldd r24,Z+6
 271 000e 9781      		ldd r25,Z+7
 272 0010 8617      		cp r24,r22
 273 0012 9707      		cpc r25,r23
 274 0014 01F4      		brne .L22
 275               	.LSM29:
 276 0016 8181      		ldd r24,Z+1
 277 0018 0E94 0000 		call disk_status
 278               	.LVL26:
 279 001c 80FD      		sbrc r24,0
 280 001e 00C0      		rjmp .L23
 281 0020 80E0      		ldi r24,lo8(0)
 282 0022 0895      		ret
 283               	.L23:
 284 0024 83E0      		ldi r24,lo8(3)
 285 0026 0895      		ret
 286               	.LVL27:
 287               	.L22:
 288 0028 89E0      		ldi r24,lo8(9)
 289               	.LSM30:
 290 002a 0895      		ret
 291               	.LFE147:
 293               		.section	.text.move_window,"ax",@progbits
 295               	move_window:
 296               	.LFB132:
 297               	.LSM31:
 298               	.LVL28:
 299 0000 6F92      		push r6
 300 0002 7F92      		push r7
 301 0004 8F92      		push r8
 302 0006 9F92      		push r9
 303 0008 AF92      		push r10
 304 000a BF92      		push r11
 305 000c CF92      		push r12
 306 000e DF92      		push r13
 307 0010 EF92      		push r14
 308 0012 FF92      		push r15
 309 0014 0F93      		push r16
 310 0016 1F93      		push r17
 311 0018 CF93      		push r28
 312 001a DF93      		push r29
 313               	/* prologue: function */
 314               	/* frame size = 0 */
 315 001c EC01      		movw r28,r24
 316 001e 4A01      		movw r8,r20
 317 0020 5B01      		movw r10,r22
 318               	.LSM32:
 319 0022 CAA4      		ldd r12,Y+42
 320 0024 DBA4      		ldd r13,Y+43
 321 0026 ECA4      		ldd r14,Y+44
 322 0028 FDA4      		ldd r15,Y+45
 323               	.LVL29:
 324               	.LSM33:
 325 002a C416      		cp r12,r20
 326 002c D506      		cpc r13,r21
 327 002e E606      		cpc r14,r22
 328 0030 F706      		cpc r15,r23
 329 0032 01F4      		brne .+2
 330 0034 00C0      		rjmp .L27
 331               	.LVL30:
 332               	.LSM34:
 333 0036 8C81      		ldd r24,Y+4
 334 0038 8823      		tst r24
 335 003a 01F0      		breq .L28
 336               	.LSM35:
 337 003c 8EE2      		ldi r24,lo8(46)
 338 003e 682E      		mov r6,r24
 339 0040 712C      		mov r7,__zero_reg__
 340 0042 6C0E      		add r6,r28
 341 0044 7D1E      		adc r7,r29
 342 0046 8981      		ldd r24,Y+1
 343 0048 B301      		movw r22,r6
 344 004a A701      		movw r20,r14
 345 004c 9601      		movw r18,r12
 346 004e 01E0      		ldi r16,lo8(1)
 347 0050 0E94 0000 		call disk_write
 348               	.LVL31:
 349 0054 8823      		tst r24
 350 0056 01F4      		brne .L29
 351               	.LSM36:
 352 0058 1C82      		std Y+4,__zero_reg__
 353               	.LSM37:
 354 005a 8A8D      		ldd r24,Y+26
 355 005c 9B8D      		ldd r25,Y+27
 356 005e AC8D      		ldd r26,Y+28
 357 0060 BD8D      		ldd r27,Y+29
 358 0062 2E8D      		ldd r18,Y+30
 359 0064 3F8D      		ldd r19,Y+31
 360 0066 48A1      		ldd r20,Y+32
 361 0068 59A1      		ldd r21,Y+33
 362 006a 820F      		add r24,r18
 363 006c 931F      		adc r25,r19
 364 006e A41F      		adc r26,r20
 365 0070 B51F      		adc r27,r21
 366 0072 C816      		cp r12,r24
 367 0074 D906      		cpc r13,r25
 368 0076 EA06      		cpc r14,r26
 369 0078 FB06      		cpc r15,r27
 370 007a 00F4      		brsh .L28
 371               	.LBB2:
 372               	.LSM38:
 373 007c 1B81      		ldd r17,Y+3
 374               	.LVL32:
 375 007e 00C0      		rjmp .L30
 376               	.L31:
 377               	.LSM39:
 378 0080 8A8D      		ldd r24,Y+26
 379 0082 9B8D      		ldd r25,Y+27
 380 0084 AC8D      		ldd r26,Y+28
 381 0086 BD8D      		ldd r27,Y+29
 382 0088 C80E      		add r12,r24
 383 008a D91E      		adc r13,r25
 384 008c EA1E      		adc r14,r26
 385 008e FB1E      		adc r15,r27
 386               	.LSM40:
 387 0090 8981      		ldd r24,Y+1
 388 0092 B301      		movw r22,r6
 389 0094 A701      		movw r20,r14
 390 0096 9601      		movw r18,r12
 391 0098 01E0      		ldi r16,lo8(1)
 392 009a 0E94 0000 		call disk_write
 393               	.LSM41:
 394 009e 1150      		subi r17,lo8(-(-1))
 395               	.L30:
 396 00a0 1230      		cpi r17,lo8(2)
 397 00a2 00F4      		brsh .L31
 398               	.LVL33:
 399               	.L28:
 400               	.LBE2:
 401               	.LSM42:
 402 00a4 8114      		cp r8,__zero_reg__
 403 00a6 9104      		cpc r9,__zero_reg__
 404 00a8 A104      		cpc r10,__zero_reg__
 405 00aa B104      		cpc r11,__zero_reg__
 406 00ac 01F0      		breq .L27
 407               	.LSM43:
 408 00ae BE01      		movw r22,r28
 409 00b0 625D      		subi r22,lo8(-(46))
 410 00b2 7F4F      		sbci r23,hi8(-(46))
 411 00b4 8981      		ldd r24,Y+1
 412 00b6 A501      		movw r20,r10
 413 00b8 9401      		movw r18,r8
 414 00ba 01E0      		ldi r16,lo8(1)
 415 00bc 0E94 0000 		call disk_read
 416 00c0 8823      		tst r24
 417 00c2 01F4      		brne .L29
 418               	.LSM44:
 419 00c4 8AA6      		std Y+42,r8
 420 00c6 9BA6      		std Y+43,r9
 421 00c8 ACA6      		std Y+44,r10
 422 00ca BDA6      		std Y+45,r11
 423 00cc 00C0      		rjmp .L32
 424               	.L29:
 425 00ce 81E0      		ldi r24,lo8(1)
 426 00d0 00C0      		rjmp .L32
 427               	.LVL34:
 428               	.L27:
 429 00d2 80E0      		ldi r24,lo8(0)
 430               	.LVL35:
 431               	.L32:
 432               	/* epilogue start */
 433               	.LSM45:
 434 00d4 DF91      		pop r29
 435 00d6 CF91      		pop r28
 436               	.LVL36:
 437 00d8 1F91      		pop r17
 438               	.LVL37:
 439 00da 0F91      		pop r16
 440 00dc FF90      		pop r15
 441 00de EF90      		pop r14
 442 00e0 DF90      		pop r13
 443 00e2 CF90      		pop r12
 444               	.LVL38:
 445 00e4 BF90      		pop r11
 446 00e6 AF90      		pop r10
 447 00e8 9F90      		pop r9
 448 00ea 8F90      		pop r8
 449               	.LVL39:
 450 00ec 7F90      		pop r7
 451 00ee 6F90      		pop r6
 452 00f0 0895      		ret
 453               	.LFE132:
 455               		.section	.text.put_fat,"ax",@progbits
 456               	.global	put_fat
 458               	put_fat:
 459               	.LFB135:
 460               	.LSM46:
 461               	.LVL40:
 462 0000 8F92      		push r8
 463 0002 9F92      		push r9
 464 0004 AF92      		push r10
 465 0006 BF92      		push r11
 466 0008 CF92      		push r12
 467 000a DF92      		push r13
 468 000c EF92      		push r14
 469 000e FF92      		push r15
 470 0010 0F93      		push r16
 471               	.LVL41:
 472 0012 1F93      		push r17
 473 0014 CF93      		push r28
 474 0016 DF93      		push r29
 475               	/* prologue: function */
 476               	/* frame size = 0 */
 477 0018 EC01      		movw r28,r24
 478 001a 6A01      		movw r12,r20
 479 001c 7B01      		movw r14,r22
 480 001e 4801      		movw r8,r16
 481 0020 5901      		movw r10,r18
 482               	.LVL42:
 483               	.LSM47:
 484 0022 4230      		cpi r20,lo8(2)
 485 0024 5105      		cpc r21,__zero_reg__
 486 0026 6105      		cpc r22,__zero_reg__
 487 0028 7105      		cpc r23,__zero_reg__
 488               	.LVL43:
 489 002a 00F4      		brsh .+2
 490 002c 00C0      		rjmp .L35
 491               	.LVL44:
 492 002e 8E89      		ldd r24,Y+22
 493 0030 9F89      		ldd r25,Y+23
 494 0032 A88D      		ldd r26,Y+24
 495 0034 B98D      		ldd r27,Y+25
 496 0036 4817      		cp r20,r24
 497 0038 5907      		cpc r21,r25
 498 003a 6A07      		cpc r22,r26
 499 003c 7B07      		cpc r23,r27
 500 003e 00F0      		brlo .+2
 501 0040 00C0      		rjmp .L35
 502               	.LSM48:
 503 0042 8881      		ld r24,Y
 504 0044 8230      		cpi r24,lo8(2)
 505 0046 01F4      		brne .+2
 506 0048 00C0      		rjmp .L38
 507 004a 8330      		cpi r24,lo8(3)
 508 004c 01F4      		brne .+2
 509 004e 00C0      		rjmp .L39
 510 0050 8130      		cpi r24,lo8(1)
 511 0052 01F0      		breq .L37
 512 0054 22E0      		ldi r18,lo8(2)
 513               	.LVL45:
 514 0056 00C0      		rjmp .L40
 515               	.LVL46:
 516               	.L37:
 517               	.LSM49:
 518 0058 8A01      		movw r16,r20
 519               	.LVL47:
 520 005a 1695      		lsr r17
 521 005c 0795      		ror r16
 522               	.LVL48:
 523 005e 040F      		add r16,r20
 524 0060 151F      		adc r17,r21
 525               	.LSM50:
 526 0062 A801      		movw r20,r16
 527               	.LVL49:
 528 0064 452F      		mov r20,r21
 529 0066 5527      		clr r21
 530 0068 4695      		lsr r20
 531 006a 60E0      		ldi r22,lo8(0)
 532 006c 70E0      		ldi r23,hi8(0)
 533 006e 8E8D      		ldd r24,Y+30
 534 0070 9F8D      		ldd r25,Y+31
 535 0072 A8A1      		ldd r26,Y+32
 536 0074 B9A1      		ldd r27,Y+33
 537 0076 480F      		add r20,r24
 538 0078 591F      		adc r21,r25
 539 007a 6A1F      		adc r22,r26
 540 007c 7B1F      		adc r23,r27
 541 007e CE01      		movw r24,r28
 542 0080 0E94 0000 		call move_window
 543 0084 282F      		mov r18,r24
 544               	.LVL50:
 545               	.LSM51:
 546 0086 8823      		tst r24
 547 0088 01F0      		breq .+2
 548 008a 00C0      		rjmp .L40
 549               	.LVL51:
 550               	.LSM52:
 551 008c D801      		movw r26,r16
 552 008e B170      		andi r27,hi8(511)
 553               	.LSM53:
 554 0090 81E0      		ldi r24,lo8(1)
 555 0092 E82E      		mov r14,r24
 556 0094 F12C      		mov r15,__zero_reg__
 557               	.LVL52:
 558 0096 EC20      		and r14,r12
 559 0098 FD20      		and r15,r13
 560 009a E114      		cp r14,__zero_reg__
 561 009c F104      		cpc r15,__zero_reg__
 562 009e 01F0      		breq .L41
 563 00a0 FE01      		movw r30,r28
 564 00a2 EA0F      		add r30,r26
 565 00a4 FB1F      		adc r31,r27
 566 00a6 86A5      		ldd r24,Z+46
 567 00a8 8F70      		andi r24,lo8(15)
 568 00aa 982D      		mov r25,r8
 569               	.LVL53:
 570 00ac 9295      		swap r25
 571 00ae 907F      		andi r25,lo8(-16)
 572 00b0 982B      		or r25,r24
 573 00b2 00C0      		rjmp .L42
 574               	.LVL54:
 575               	.L41:
 576 00b4 982D      		mov r25,r8
 577               	.L42:
 578 00b6 AC0F      		add r26,r28
 579 00b8 BD1F      		adc r27,r29
 580 00ba 9E96      		adiw r26,46
 581 00bc 9C93      		st X,r25
 582               	.LSM54:
 583 00be 0F5F      		subi r16,lo8(-(1))
 584 00c0 1F4F      		sbci r17,hi8(-(1))
 585               	.LVL55:
 586               	.LSM55:
 587 00c2 81E0      		ldi r24,lo8(1)
 588 00c4 8C83      		std Y+4,r24
 589               	.LSM56:
 590 00c6 A801      		movw r20,r16
 591 00c8 452F      		mov r20,r21
 592 00ca 5527      		clr r21
 593 00cc 4695      		lsr r20
 594 00ce 60E0      		ldi r22,lo8(0)
 595 00d0 70E0      		ldi r23,hi8(0)
 596 00d2 8E8D      		ldd r24,Y+30
 597 00d4 9F8D      		ldd r25,Y+31
 598 00d6 A8A1      		ldd r26,Y+32
 599 00d8 B9A1      		ldd r27,Y+33
 600 00da 480F      		add r20,r24
 601 00dc 591F      		adc r21,r25
 602 00de 6A1F      		adc r22,r26
 603 00e0 7B1F      		adc r23,r27
 604 00e2 CE01      		movw r24,r28
 605 00e4 0E94 0000 		call move_window
 606               	.LVL56:
 607 00e8 282F      		mov r18,r24
 608               	.LVL57:
 609               	.LSM57:
 610 00ea 8823      		tst r24
 611 00ec 01F0      		breq .+2
 612 00ee 00C0      		rjmp .L40
 613               	.LVL58:
 614               	.LSM58:
 615 00f0 A801      		movw r20,r16
 616 00f2 5170      		andi r21,hi8(511)
 617               	.LSM59:
 618 00f4 EF28      		or r14,r15
 619 00f6 01F0      		breq .L43
 620 00f8 E4E0      		ldi r30,4
 621 00fa B694      	1:	lsr r11
 622 00fc A794      		ror r10
 623 00fe 9794      		ror r9
 624 0100 8794      		ror r8
 625 0102 EA95      		dec r30
 626 0104 01F4      		brne 1b
 627 0106 682D      		mov r22,r8
 628 0108 00C0      		rjmp .L44
 629               	.L43:
 630 010a FE01      		movw r30,r28
 631 010c E40F      		add r30,r20
 632 010e F51F      		adc r31,r21
 633 0110 66A5      		ldd r22,Z+46
 634 0112 607F      		andi r22,lo8(-16)
 635 0114 BB27      		clr r27
 636 0116 AB2D      		mov r26,r11
 637 0118 9A2D      		mov r25,r10
 638 011a 892D      		mov r24,r9
 639               	.LVL59:
 640 011c 8F70      		andi r24,lo8(15)
 641 011e 682B      		or r22,r24
 642               	.LVL60:
 643               	.L44:
 644 0120 4C0F      		add r20,r28
 645 0122 5D1F      		adc r21,r29
 646 0124 FA01      		movw r30,r20
 647 0126 66A7      		std Z+46,r22
 648 0128 00C0      		rjmp .L40
 649               	.LVL61:
 650               	.L38:
 651               	.LSM60:
 652 012a 7727      		clr r23
 653 012c 6F2D      		mov r22,r15
 654 012e 5E2D      		mov r21,r14
 655 0130 4D2D      		mov r20,r13
 656               	.LVL62:
 657 0132 8E8D      		ldd r24,Y+30
 658 0134 9F8D      		ldd r25,Y+31
 659 0136 A8A1      		ldd r26,Y+32
 660 0138 B9A1      		ldd r27,Y+33
 661 013a 480F      		add r20,r24
 662 013c 591F      		adc r21,r25
 663 013e 6A1F      		adc r22,r26
 664 0140 7B1F      		adc r23,r27
 665 0142 CE01      		movw r24,r28
 666 0144 0E94 0000 		call move_window
 667 0148 282F      		mov r18,r24
 668               	.LVL63:
 669               	.LSM61:
 670 014a 8823      		tst r24
 671 014c 01F0      		breq .+2
 672 014e 00C0      		rjmp .L40
 673               	.LVL64:
 674               	.LSM62:
 675 0150 CC0C      		lsl r12
 676 0152 DD1C      		rol r13
 677 0154 EE1C      		rol r14
 678 0156 FF1C      		rol r15
 679 0158 F601      		movw r30,r12
 680               	.LVL65:
 681 015a F170      		andi r31,hi8(511)
 682 015c BE96      		adiw r30,46
 683 015e EC0F      		add r30,r28
 684 0160 FD1F      		adc r31,r29
 685 0162 9182      		std Z+1,r9
 686 0164 8082      		st Z,r8
 687 0166 00C0      		rjmp .L40
 688               	.LVL66:
 689               	.L39:
 690               	.LSM63:
 691 0168 27E0      		ldi r18,7
 692 016a 7695      	1:	lsr r23
 693 016c 6795      		ror r22
 694 016e 5795      		ror r21
 695 0170 4795      		ror r20
 696 0172 2A95      		dec r18
 697 0174 01F4      		brne 1b
 698               	.LVL67:
 699 0176 8E8D      		ldd r24,Y+30
 700 0178 9F8D      		ldd r25,Y+31
 701 017a A8A1      		ldd r26,Y+32
 702 017c B9A1      		ldd r27,Y+33
 703 017e 480F      		add r20,r24
 704 0180 591F      		adc r21,r25
 705 0182 6A1F      		adc r22,r26
 706 0184 7B1F      		adc r23,r27
 707 0186 CE01      		movw r24,r28
 708 0188 0E94 0000 		call move_window
 709 018c 282F      		mov r18,r24
 710               	.LVL68:
 711               	.LSM64:
 712 018e 8823      		tst r24
 713 0190 01F4      		brne .L40
 714               	.LVL69:
 715               	.LSM65:
 716 0192 92E0      		ldi r25,2
 717 0194 CC0C      	1:	lsl r12
 718 0196 DD1C      		rol r13
 719 0198 EE1C      		rol r14
 720 019a FF1C      		rol r15
 721 019c 9A95      		dec r25
 722 019e 01F4      		brne 1b
 723 01a0 F601      		movw r30,r12
 724               	.LVL70:
 725 01a2 F170      		andi r31,hi8(511)
 726 01a4 BE96      		adiw r30,46
 727 01a6 EC0F      		add r30,r28
 728 01a8 FD1F      		adc r31,r29
 729               	.LSM66:
 730 01aa 8081      		ld r24,Z
 731 01ac 9181      		ldd r25,Z+1
 732 01ae A281      		ldd r26,Z+2
 733 01b0 B381      		ldd r27,Z+3
 734               	.LVL71:
 735 01b2 8070      		andi r24,lo8(-268435456)
 736 01b4 9070      		andi r25,hi8(-268435456)
 737 01b6 A070      		andi r26,hlo8(-268435456)
 738 01b8 B07F      		andi r27,hhi8(-268435456)
 739 01ba 8829      		or r24,r8
 740 01bc 9929      		or r25,r9
 741 01be AA29      		or r26,r10
 742 01c0 BB29      		or r27,r11
 743 01c2 8083      		st Z,r24
 744 01c4 9183      		std Z+1,r25
 745 01c6 A283      		std Z+2,r26
 746 01c8 B383      		std Z+3,r27
 747               	.LVL72:
 748               	.L40:
 749               	.LSM67:
 750 01ca 81E0      		ldi r24,lo8(1)
 751 01cc 8C83      		std Y+4,r24
 752 01ce 00C0      		rjmp .L45
 753               	.LVL73:
 754               	.L35:
 755 01d0 22E0      		ldi r18,lo8(2)
 756               	.LVL74:
 757               	.L45:
 758               	.LSM68:
 759 01d2 822F      		mov r24,r18
 760               	/* epilogue start */
 761 01d4 DF91      		pop r29
 762 01d6 CF91      		pop r28
 763               	.LVL75:
 764 01d8 1F91      		pop r17
 765 01da 0F91      		pop r16
 766               	.LVL76:
 767 01dc FF90      		pop r15
 768 01de EF90      		pop r14
 769 01e0 DF90      		pop r13
 770 01e2 CF90      		pop r12
 771 01e4 BF90      		pop r11
 772 01e6 AF90      		pop r10
 773 01e8 9F90      		pop r9
 774 01ea 8F90      		pop r8
 775               	.LVL77:
 776 01ec 0895      		ret
 777               	.LFE135:
 779               		.section	.text.get_fat,"ax",@progbits
 780               	.global	get_fat
 782               	get_fat:
 783               	.LFB134:
 784               	.LSM69:
 785               	.LVL78:
 786 0000 BF92      		push r11
 787 0002 CF92      		push r12
 788 0004 DF92      		push r13
 789 0006 EF92      		push r14
 790 0008 FF92      		push r15
 791 000a 0F93      		push r16
 792 000c 1F93      		push r17
 793 000e CF93      		push r28
 794 0010 DF93      		push r29
 795               	/* prologue: function */
 796               	/* frame size = 0 */
 797 0012 6C01      		movw r12,r24
 798 0014 7A01      		movw r14,r20
 799 0016 8B01      		movw r16,r22
 800               	.LSM70:
 801 0018 4230      		cpi r20,lo8(2)
 802 001a 5105      		cpc r21,__zero_reg__
 803 001c 6105      		cpc r22,__zero_reg__
 804 001e 7105      		cpc r23,__zero_reg__
 805               	.LVL79:
 806 0020 00F4      		brsh .+2
 807 0022 00C0      		rjmp .L48
 808 0024 F601      		movw r30,r12
 809 0026 8689      		ldd r24,Z+22
 810 0028 9789      		ldd r25,Z+23
 811 002a A08D      		ldd r26,Z+24
 812 002c B18D      		ldd r27,Z+25
 813 002e 4817      		cp r20,r24
 814 0030 5907      		cpc r21,r25
 815 0032 6A07      		cpc r22,r26
 816 0034 7B07      		cpc r23,r27
 817 0036 00F0      		brlo .+2
 818 0038 00C0      		rjmp .L48
 819               	.LSM71:
 820 003a 8081      		ld r24,Z
 821 003c 8230      		cpi r24,lo8(2)
 822 003e 01F4      		brne .+2
 823 0040 00C0      		rjmp .L51
 824 0042 8330      		cpi r24,lo8(3)
 825 0044 01F4      		brne .+2
 826 0046 00C0      		rjmp .L52
 827 0048 8130      		cpi r24,lo8(1)
 828 004a 01F0      		breq .+2
 829 004c 00C0      		rjmp .L49
 830               	.LSM72:
 831 004e EA01      		movw r28,r20
 832               	.LVL80:
 833 0050 D695      		lsr r29
 834 0052 C795      		ror r28
 835               	.LVL81:
 836 0054 C40F      		add r28,r20
 837 0056 D51F      		adc r29,r21
 838               	.LSM73:
 839 0058 AE01      		movw r20,r28
 840               	.LVL82:
 841 005a 452F      		mov r20,r21
 842 005c 5527      		clr r21
 843 005e 4695      		lsr r20
 844 0060 60E0      		ldi r22,lo8(0)
 845 0062 70E0      		ldi r23,hi8(0)
 846 0064 F601      		movw r30,r12
 847 0066 868D      		ldd r24,Z+30
 848 0068 978D      		ldd r25,Z+31
 849 006a A0A1      		ldd r26,Z+32
 850 006c B1A1      		ldd r27,Z+33
 851 006e 480F      		add r20,r24
 852 0070 591F      		adc r21,r25
 853 0072 6A1F      		adc r22,r26
 854 0074 7B1F      		adc r23,r27
 855 0076 C601      		movw r24,r12
 856 0078 0E94 0000 		call move_window
 857 007c 8823      		tst r24
 858 007e 01F0      		breq .+2
 859 0080 00C0      		rjmp .L49
 860               	.LSM74:
 861 0082 FE01      		movw r30,r28
 862 0084 F170      		andi r31,hi8(511)
 863 0086 EC0D      		add r30,r12
 864 0088 FD1D      		adc r31,r13
 865 008a B6A4      		ldd r11,Z+46
 866 008c 2196      		adiw r28,1
 867               	.LVL83:
 868               	.LSM75:
 869 008e AE01      		movw r20,r28
 870 0090 452F      		mov r20,r21
 871 0092 5527      		clr r21
 872 0094 4695      		lsr r20
 873 0096 60E0      		ldi r22,lo8(0)
 874 0098 70E0      		ldi r23,hi8(0)
 875 009a F601      		movw r30,r12
 876 009c 868D      		ldd r24,Z+30
 877 009e 978D      		ldd r25,Z+31
 878 00a0 A0A1      		ldd r26,Z+32
 879 00a2 B1A1      		ldd r27,Z+33
 880 00a4 480F      		add r20,r24
 881 00a6 591F      		adc r21,r25
 882 00a8 6A1F      		adc r22,r26
 883 00aa 7B1F      		adc r23,r27
 884 00ac C601      		movw r24,r12
 885 00ae 0E94 0000 		call move_window
 886 00b2 8823      		tst r24
 887 00b4 01F0      		breq .+2
 888 00b6 00C0      		rjmp .L49
 889               	.LSM76:
 890 00b8 6B2D      		mov r22,r11
 891               	.LVL84:
 892 00ba 70E0      		ldi r23,lo8(0)
 893               	.LVL85:
 894               	.LSM77:
 895 00bc D170      		andi r29,hi8(511)
 896 00be CC0D      		add r28,r12
 897 00c0 DD1D      		adc r29,r13
 898 00c2 9EA5      		ldd r25,Y+46
 899 00c4 80E0      		ldi r24,lo8(0)
 900 00c6 682B      		or r22,r24
 901 00c8 792B      		or r23,r25
 902               	.LVL86:
 903               	.LSM78:
 904 00ca C701      		movw r24,r14
 905               	.LVL87:
 906 00cc 8170      		andi r24,lo8(1)
 907 00ce 9070      		andi r25,hi8(1)
 908 00d0 892B      		or r24,r25
 909 00d2 01F0      		breq .L53
 910 00d4 B4E0      		ldi r27,4
 911 00d6 7695      	1:	lsr r23
 912 00d8 6795      		ror r22
 913 00da BA95      		dec r27
 914 00dc 01F4      		brne 1b
 915 00de 9B01      		movw r18,r22
 916 00e0 00C0      		rjmp .L56
 917               	.L53:
 918 00e2 9B01      		movw r18,r22
 919 00e4 40E0      		ldi r20,lo8(0)
 920 00e6 50E0      		ldi r21,hi8(0)
 921 00e8 3F70      		andi r19,hi8(4095)
 922 00ea 4070      		andi r20,hlo8(4095)
 923 00ec 5070      		andi r21,hhi8(4095)
 924 00ee 00C0      		rjmp .L54
 925               	.LVL88:
 926               	.L51:
 927               	.LSM79:
 928 00f0 452F      		mov r20,r21
 929 00f2 562F      		mov r21,r22
 930 00f4 672F      		mov r22,r23
 931 00f6 7727      		clr r23
 932               	.LVL89:
 933 00f8 F601      		movw r30,r12
 934 00fa 868D      		ldd r24,Z+30
 935 00fc 978D      		ldd r25,Z+31
 936 00fe A0A1      		ldd r26,Z+32
 937 0100 B1A1      		ldd r27,Z+33
 938 0102 480F      		add r20,r24
 939 0104 591F      		adc r21,r25
 940 0106 6A1F      		adc r22,r26
 941 0108 7B1F      		adc r23,r27
 942 010a C601      		movw r24,r12
 943 010c 0E94 0000 		call move_window
 944 0110 8823      		tst r24
 945 0112 01F4      		brne .L49
 946               	.LSM80:
 947 0114 EE0C      		lsl r14
 948 0116 FF1C      		rol r15
 949 0118 001F      		rol r16
 950 011a 111F      		rol r17
 951 011c F701      		movw r30,r14
 952               	.LVL90:
 953 011e F170      		andi r31,hi8(511)
 954 0120 EC0D      		add r30,r12
 955 0122 FD1D      		adc r31,r13
 956 0124 86A5      		ldd r24,Z+46
 957 0126 97A5      		ldd r25,Z+47
 958 0128 9C01      		movw r18,r24
 959               	.LVL91:
 960               	.L56:
 961 012a 40E0      		ldi r20,lo8(0)
 962 012c 50E0      		ldi r21,hi8(0)
 963 012e 00C0      		rjmp .L54
 964               	.LVL92:
 965               	.L52:
 966               	.LSM81:
 967 0130 E7E0      		ldi r30,7
 968 0132 7695      	1:	lsr r23
 969 0134 6795      		ror r22
 970 0136 5795      		ror r21
 971 0138 4795      		ror r20
 972 013a EA95      		dec r30
 973 013c 01F4      		brne 1b
 974               	.LVL93:
 975 013e F601      		movw r30,r12
 976 0140 868D      		ldd r24,Z+30
 977 0142 978D      		ldd r25,Z+31
 978 0144 A0A1      		ldd r26,Z+32
 979 0146 B1A1      		ldd r27,Z+33
 980 0148 480F      		add r20,r24
 981 014a 591F      		adc r21,r25
 982 014c 6A1F      		adc r22,r26
 983 014e 7B1F      		adc r23,r27
 984 0150 C601      		movw r24,r12
 985 0152 0E94 0000 		call move_window
 986 0156 8823      		tst r24
 987 0158 01F4      		brne .L49
 988               	.LSM82:
 989 015a 32E0      		ldi r19,2
 990 015c EE0C      	1:	lsl r14
 991 015e FF1C      		rol r15
 992 0160 001F      		rol r16
 993 0162 111F      		rol r17
 994 0164 3A95      		dec r19
 995 0166 01F4      		brne 1b
 996 0168 F701      		movw r30,r14
 997               	.LVL94:
 998 016a F170      		andi r31,hi8(511)
 999 016c EC0D      		add r30,r12
 1000 016e FD1D      		adc r31,r13
 1001 0170 26A5      		ldd r18,Z+46
 1002 0172 37A5      		ldd r19,Z+47
 1003 0174 40A9      		ldd r20,Z+48
 1004 0176 51A9      		ldd r21,Z+49
 1005 0178 5F70      		andi r21,hhi8(268435455)
 1006 017a 00C0      		rjmp .L54
 1007               	.LVL95:
 1008               	.L48:
 1009 017c 21E0      		ldi r18,lo8(1)
 1010 017e 30E0      		ldi r19,hi8(1)
 1011 0180 40E0      		ldi r20,hlo8(1)
 1012 0182 50E0      		ldi r21,hhi8(1)
 1013 0184 00C0      		rjmp .L54
 1014               	.LVL96:
 1015               	.L49:
 1016 0186 2FEF      		ldi r18,lo8(-1)
 1017 0188 3FEF      		ldi r19,hi8(-1)
 1018 018a 4FEF      		ldi r20,hlo8(-1)
 1019 018c 5FEF      		ldi r21,hhi8(-1)
 1020               	.LVL97:
 1021               	.L54:
 1022               	.LSM83:
 1023 018e B901      		movw r22,r18
 1024               	.LVL98:
 1025 0190 CA01      		movw r24,r20
 1026               	/* epilogue start */
 1027 0192 DF91      		pop r29
 1028 0194 CF91      		pop r28
 1029               	.LVL99:
 1030 0196 1F91      		pop r17
 1031 0198 0F91      		pop r16
 1032 019a FF90      		pop r15
 1033 019c EF90      		pop r14
 1034               	.LVL100:
 1035 019e DF90      		pop r13
 1036 01a0 CF90      		pop r12
 1037               	.LVL101:
 1038 01a2 BF90      		pop r11
 1039 01a4 0895      		ret
 1040               	.LFE134:
 1042               		.section	.text.create_chain,"ax",@progbits
 1044               	create_chain:
 1045               	.LFB137:
 1046               	.LSM84:
 1047               	.LVL102:
 1048 0000 4F92      		push r4
 1049 0002 5F92      		push r5
 1050 0004 6F92      		push r6
 1051 0006 7F92      		push r7
 1052 0008 8F92      		push r8
 1053 000a 9F92      		push r9
 1054 000c AF92      		push r10
 1055 000e BF92      		push r11
 1056 0010 CF92      		push r12
 1057 0012 DF92      		push r13
 1058 0014 EF92      		push r14
 1059 0016 FF92      		push r15
 1060 0018 0F93      		push r16
 1061 001a 1F93      		push r17
 1062 001c CF93      		push r28
 1063 001e DF93      		push r29
 1064               	/* prologue: function */
 1065               	/* frame size = 0 */
 1066 0020 EC01      		movw r28,r24
 1067 0022 2A01      		movw r4,r20
 1068 0024 3B01      		movw r6,r22
 1069               	.LSM85:
 1070 0026 4115      		cp r20,__zero_reg__
 1071 0028 5105      		cpc r21,__zero_reg__
 1072 002a 6105      		cpc r22,__zero_reg__
 1073 002c 7105      		cpc r23,__zero_reg__
 1074 002e 01F4      		brne .L58
 1075               	.LVL103:
 1076               	.LSM86:
 1077 0030 8A84      		ldd r8,Y+10
 1078 0032 9B84      		ldd r9,Y+11
 1079 0034 AC84      		ldd r10,Y+12
 1080 0036 BD84      		ldd r11,Y+13
 1081               	.LVL104:
 1082               	.LSM87:
 1083 0038 8114      		cp r8,__zero_reg__
 1084 003a 9104      		cpc r9,__zero_reg__
 1085 003c A104      		cpc r10,__zero_reg__
 1086 003e B104      		cpc r11,__zero_reg__
 1087 0040 01F0      		breq .L59
 1088 0042 8E89      		ldd r24,Y+22
 1089 0044 9F89      		ldd r25,Y+23
 1090 0046 A88D      		ldd r26,Y+24
 1091 0048 B98D      		ldd r27,Y+25
 1092 004a 8816      		cp r8,r24
 1093 004c 9906      		cpc r9,r25
 1094 004e AA06      		cpc r10,r26
 1095 0050 BB06      		cpc r11,r27
 1096 0052 00F4      		brsh .L59
 1097 0054 00C0      		rjmp .L60
 1098               	.LVL105:
 1099               	.L58:
 1100               	.LSM88:
 1101 0056 0E94 0000 		call get_fat
 1102               	.LVL106:
 1103 005a 9B01      		movw r18,r22
 1104 005c AC01      		movw r20,r24
 1105               	.LVL107:
 1106               	.LSM89:
 1107 005e 6230      		cpi r22,lo8(2)
 1108 0060 7105      		cpc r23,__zero_reg__
 1109 0062 8105      		cpc r24,__zero_reg__
 1110 0064 9105      		cpc r25,__zero_reg__
 1111 0066 00F4      		brsh .L61
 1112               	.LVL108:
 1113 0068 21E0      		ldi r18,lo8(1)
 1114 006a 30E0      		ldi r19,hi8(1)
 1115 006c 40E0      		ldi r20,hlo8(1)
 1116 006e 50E0      		ldi r21,hhi8(1)
 1117               	.LVL109:
 1118 0070 00C0      		rjmp .L62
 1119               	.LVL110:
 1120               	.L61:
 1121               	.LSM90:
 1122 0072 8E89      		ldd r24,Y+22
 1123 0074 9F89      		ldd r25,Y+23
 1124 0076 A88D      		ldd r26,Y+24
 1125 0078 B98D      		ldd r27,Y+25
 1126 007a 2817      		cp r18,r24
 1127 007c 3907      		cpc r19,r25
 1128 007e 4A07      		cpc r20,r26
 1129 0080 5B07      		cpc r21,r27
 1130 0082 00F4      		brsh .+2
 1131 0084 00C0      		rjmp .L62
 1132               	.LVL111:
 1133 0086 5301      		movw r10,r6
 1134 0088 4201      		movw r8,r4
 1135               	.LVL112:
 1136 008a 00C0      		rjmp .L60
 1137               	.LVL113:
 1138               	.L59:
 1139 008c 41E0      		ldi r20,lo8(1)
 1140 008e 842E      		mov r8,r20
 1141 0090 912C      		mov r9,__zero_reg__
 1142 0092 A12C      		mov r10,__zero_reg__
 1143 0094 B12C      		mov r11,__zero_reg__
 1144               	.LVL114:
 1145               	.L60:
 1146 0096 7501      		movw r14,r10
 1147 0098 6401      		movw r12,r8
 1148               	.LVL115:
 1149               	.L66:
 1150               	.LSM91:
 1151 009a 0894      		sec
 1152 009c C11C      		adc r12,__zero_reg__
 1153 009e D11C      		adc r13,__zero_reg__
 1154 00a0 E11C      		adc r14,__zero_reg__
 1155 00a2 F11C      		adc r15,__zero_reg__
 1156               	.LSM92:
 1157 00a4 8E89      		ldd r24,Y+22
 1158 00a6 9F89      		ldd r25,Y+23
 1159 00a8 A88D      		ldd r26,Y+24
 1160 00aa B98D      		ldd r27,Y+25
 1161 00ac C816      		cp r12,r24
 1162 00ae D906      		cpc r13,r25
 1163 00b0 EA06      		cpc r14,r26
 1164 00b2 FB06      		cpc r15,r27
 1165 00b4 00F0      		brlo .L63
 1166               	.LSM93:
 1167 00b6 22E0      		ldi r18,lo8(2)
 1168 00b8 8216      		cp r8,r18
 1169 00ba 9104      		cpc r9,__zero_reg__
 1170 00bc A104      		cpc r10,__zero_reg__
 1171 00be B104      		cpc r11,__zero_reg__
 1172               	.LVL116:
 1173 00c0 00F4      		brsh .+2
 1174 00c2 00C0      		rjmp .L64
 1175 00c4 32E0      		ldi r19,lo8(2)
 1176 00c6 C32E      		mov r12,r19
 1177 00c8 D12C      		mov r13,__zero_reg__
 1178 00ca E12C      		mov r14,__zero_reg__
 1179 00cc F12C      		mov r15,__zero_reg__
 1180               	.LVL117:
 1181               	.L63:
 1182               	.LSM94:
 1183 00ce CE01      		movw r24,r28
 1184 00d0 B701      		movw r22,r14
 1185 00d2 A601      		movw r20,r12
 1186 00d4 0E94 0000 		call get_fat
 1187               	.LVL118:
 1188 00d8 9B01      		movw r18,r22
 1189 00da AC01      		movw r20,r24
 1190               	.LVL119:
 1191               	.LSM95:
 1192 00dc 6115      		cp r22,__zero_reg__
 1193 00de 7105      		cpc r23,__zero_reg__
 1194 00e0 8105      		cpc r24,__zero_reg__
 1195 00e2 9105      		cpc r25,__zero_reg__
 1196 00e4 01F0      		breq .L65
 1197               	.LVL120:
 1198               	.LSM96:
 1199 00e6 2F3F      		cpi r18,lo8(-1)
 1200 00e8 8FEF      		ldi r24,hi8(-1)
 1201 00ea 3807      		cpc r19,r24
 1202 00ec 8FEF      		ldi r24,hlo8(-1)
 1203 00ee 4807      		cpc r20,r24
 1204 00f0 8FEF      		ldi r24,hhi8(-1)
 1205 00f2 5807      		cpc r21,r24
 1206 00f4 01F4      		brne .+2
 1207 00f6 00C0      		rjmp .L62
 1208               	.LVL121:
 1209 00f8 2130      		cpi r18,lo8(1)
 1210 00fa 3105      		cpc r19,__zero_reg__
 1211 00fc 4105      		cpc r20,__zero_reg__
 1212 00fe 5105      		cpc r21,__zero_reg__
 1213 0100 01F4      		brne .+2
 1214 0102 00C0      		rjmp .L62
 1215               	.LSM97:
 1216 0104 C814      		cp r12,r8
 1217 0106 D904      		cpc r13,r9
 1218 0108 EA04      		cpc r14,r10
 1219 010a FB04      		cpc r15,r11
 1220 010c 01F4      		brne .L66
 1221 010e 00C0      		rjmp .L64
 1222               	.LVL122:
 1223               	.L65:
 1224 0110 BC2C      		mov r11,r12
 1225 0112 AD2C      		mov r10,r13
 1226               	.LVL123:
 1227 0114 9E2C      		mov r9,r14
 1228               	.LVL124:
 1229 0116 8F2C      		mov r8,r15
 1230               	.LVL125:
 1231               	.LSM98:
 1232 0118 CE01      		movw r24,r28
 1233 011a A601      		movw r20,r12
 1234               	.LVL126:
 1235 011c B701      		movw r22,r14
 1236               	.LVL127:
 1237 011e 0FEF      		ldi r16,lo8(268435455)
 1238 0120 1FEF      		ldi r17,hi8(268435455)
 1239 0122 2FEF      		ldi r18,hlo8(268435455)
 1240 0124 3FE0      		ldi r19,hhi8(268435455)
 1241 0126 0E94 0000 		call put_fat
 1242               	.LVL128:
 1243 012a 8823      		tst r24
 1244 012c 01F4      		brne .L67
 1245               	.LVL129:
 1246               	.LSM99:
 1247 012e 4114      		cp r4,__zero_reg__
 1248 0130 5104      		cpc r5,__zero_reg__
 1249 0132 6104      		cpc r6,__zero_reg__
 1250 0134 7104      		cpc r7,__zero_reg__
 1251 0136 01F0      		breq .L68
 1252               	.LSM100:
 1253 0138 CE01      		movw r24,r28
 1254 013a B301      		movw r22,r6
 1255 013c A201      		movw r20,r4
 1256 013e 8601      		movw r16,r12
 1257 0140 9701      		movw r18,r14
 1258 0142 0E94 0000 		call put_fat
 1259 0146 8823      		tst r24
 1260 0148 01F4      		brne .L67
 1261               	.L68:
 1262               	.LSM101:
 1263 014a BA86      		std Y+10,r11
 1264 014c AB86      		std Y+11,r10
 1265 014e 9C86      		std Y+12,r9
 1266 0150 8D86      		std Y+13,r8
 1267               	.LSM102:
 1268 0152 8E85      		ldd r24,Y+14
 1269 0154 9F85      		ldd r25,Y+15
 1270 0156 A889      		ldd r26,Y+16
 1271 0158 B989      		ldd r27,Y+17
 1272 015a 8F3F      		cpi r24,lo8(-1)
 1273 015c 2FEF      		ldi r18,hi8(-1)
 1274 015e 9207      		cpc r25,r18
 1275 0160 2FEF      		ldi r18,hlo8(-1)
 1276 0162 A207      		cpc r26,r18
 1277 0164 2FEF      		ldi r18,hhi8(-1)
 1278 0166 B207      		cpc r27,r18
 1279 0168 01F0      		breq .L71
 1280               	.L69:
 1281               	.LSM103:
 1282 016a 0197      		sbiw r24,1
 1283 016c A109      		sbc r26,__zero_reg__
 1284 016e B109      		sbc r27,__zero_reg__
 1285 0170 8E87      		std Y+14,r24
 1286 0172 9F87      		std Y+15,r25
 1287 0174 A88B      		std Y+16,r26
 1288 0176 B98B      		std Y+17,r27
 1289               	.LSM104:
 1290 0178 81E0      		ldi r24,lo8(1)
 1291 017a 8D83      		std Y+5,r24
 1292               	.L71:
 1293 017c A701      		movw r20,r14
 1294 017e 9601      		movw r18,r12
 1295               	.LVL130:
 1296 0180 00C0      		rjmp .L62
 1297               	.LVL131:
 1298               	.L64:
 1299 0182 20E0      		ldi r18,lo8(0)
 1300 0184 30E0      		ldi r19,hi8(0)
 1301 0186 40E0      		ldi r20,hlo8(0)
 1302 0188 50E0      		ldi r21,hhi8(0)
 1303               	.LVL132:
 1304 018a 00C0      		rjmp .L62
 1305               	.LVL133:
 1306               	.L67:
 1307 018c 2FEF      		ldi r18,lo8(-1)
 1308 018e 3FEF      		ldi r19,hi8(-1)
 1309 0190 4FEF      		ldi r20,hlo8(-1)
 1310 0192 5FEF      		ldi r21,hhi8(-1)
 1311               	.LVL134:
 1312               	.L62:
 1313               	.LSM105:
 1314 0194 B901      		movw r22,r18
 1315               	.LVL135:
 1316 0196 CA01      		movw r24,r20
 1317               	/* epilogue start */
 1318 0198 DF91      		pop r29
 1319 019a CF91      		pop r28
 1320               	.LVL136:
 1321 019c 1F91      		pop r17
 1322 019e 0F91      		pop r16
 1323 01a0 FF90      		pop r15
 1324 01a2 EF90      		pop r14
 1325 01a4 DF90      		pop r13
 1326 01a6 CF90      		pop r12
 1327               	.LVL137:
 1328 01a8 BF90      		pop r11
 1329               	.LVL138:
 1330 01aa AF90      		pop r10
 1331               	.LVL139:
 1332 01ac 9F90      		pop r9
 1333               	.LVL140:
 1334 01ae 8F90      		pop r8
 1335               	.LVL141:
 1336 01b0 7F90      		pop r7
 1337 01b2 6F90      		pop r6
 1338 01b4 5F90      		pop r5
 1339 01b6 4F90      		pop r4
 1340               	.LVL142:
 1341 01b8 0895      		ret
 1342               	.LFE137:
 1344               		.section	.text.f_lseek,"ax",@progbits
 1345               	.global	f_lseek
 1347               	f_lseek:
 1348               	.LFB154:
 1349               	.LSM106:
 1350               	.LVL143:
 1351 0000 2F92      		push r2
 1352 0002 3F92      		push r3
 1353 0004 4F92      		push r4
 1354 0006 5F92      		push r5
 1355 0008 6F92      		push r6
 1356 000a 7F92      		push r7
 1357 000c 8F92      		push r8
 1358 000e 9F92      		push r9
 1359 0010 AF92      		push r10
 1360 0012 BF92      		push r11
 1361 0014 CF92      		push r12
 1362 0016 DF92      		push r13
 1363 0018 EF92      		push r14
 1364 001a FF92      		push r15
 1365 001c 0F93      		push r16
 1366 001e 1F93      		push r17
 1367 0020 DF93      		push r29
 1368 0022 CF93      		push r28
 1369 0024 00D0      		rcall .
 1370 0026 00D0      		rcall .
 1371 0028 0F92      		push __tmp_reg__
 1372 002a CDB7      		in r28,__SP_L__
 1373 002c DEB7      		in r29,__SP_H__
 1374               	/* prologue: function */
 1375               	/* frame size = 5 */
 1376 002e 9D83      		std Y+5,r25
 1377 0030 8C83      		std Y+4,r24
 1378 0032 3A01      		movw r6,r20
 1379 0034 4B01      		movw r8,r22
 1380               	.LSM107:
 1381 0036 DC01      		movw r26,r24
 1382 0038 1296      		adiw r26,2
 1383 003a 6D91      		ld r22,X+
 1384 003c 7C91      		ld r23,X
 1385 003e 1397      		sbiw r26,2+1
 1386 0040 8D91      		ld r24,X+
 1387 0042 9C91      		ld r25,X
 1388               	.LVL144:
 1389 0044 0E94 0000 		call validate
 1390               	.LVL145:
 1391 0048 8B83      		std Y+3,r24
 1392               	.LVL146:
 1393               	.LSM108:
 1394 004a 8823      		tst r24
 1395 004c 01F0      		breq .+2
 1396 004e 00C0      		rjmp .L73
 1397               	.LSM109:
 1398 0050 EC81      		ldd r30,Y+4
 1399 0052 FD81      		ldd r31,Y+5
 1400 0054 8481      		ldd r24,Z+4
 1401 0056 87FD      		sbrc r24,7
 1402 0058 00C0      		rjmp .L96
 1403               	.L74:
 1404               	.LBB3:
 1405               	.LSM110:
 1406 005a AC81      		ldd r26,Y+4
 1407 005c BD81      		ldd r27,Y+5
 1408 005e 1A96      		adiw r26,10
 1409 0060 AD90      		ld r10,X+
 1410 0062 BD90      		ld r11,X+
 1411 0064 CD90      		ld r12,X+
 1412 0066 DC90      		ld r13,X
 1413 0068 1D97      		sbiw r26,10+3
 1414               	.LVL147:
 1415 006a A614      		cp r10,r6
 1416 006c B704      		cpc r11,r7
 1417 006e C804      		cpc r12,r8
 1418 0070 D904      		cpc r13,r9
 1419 0072 00F4      		brsh .L75
 1420 0074 81FF      		sbrs r24,1
 1421 0076 00C0      		rjmp .L76
 1422               	.L75:
 1423 0078 6401      		movw r12,r8
 1424 007a 5301      		movw r10,r6
 1425               	.L76:
 1426               	.LSM111:
 1427 007c EC81      		ldd r30,Y+4
 1428 007e FD81      		ldd r31,Y+5
 1429 0080 2681      		ldd r18,Z+6
 1430 0082 3781      		ldd r19,Z+7
 1431 0084 4085      		ldd r20,Z+8
 1432 0086 5185      		ldd r21,Z+9
 1433               	.LVL148:
 1434               	.LSM112:
 1435 0088 1682      		std Z+6,__zero_reg__
 1436 008a 1782      		std Z+7,__zero_reg__
 1437 008c 1086      		std Z+8,__zero_reg__
 1438 008e 1186      		std Z+9,__zero_reg__
 1439               	.LSM113:
 1440 0090 A114      		cp r10,__zero_reg__
 1441 0092 B104      		cpc r11,__zero_reg__
 1442 0094 C104      		cpc r12,__zero_reg__
 1443 0096 D104      		cpc r13,__zero_reg__
 1444 0098 01F4      		brne .+2
 1445 009a 00C0      		rjmp .L77
 1446               	.LSM114:
 1447 009c 0190      		ld __tmp_reg__,Z+
 1448 009e F081      		ld r31,Z
 1449 00a0 E02D      		mov r30,__tmp_reg__
 1450 00a2 FA83      		std Y+2,r31
 1451 00a4 E983      		std Y+1,r30
 1452 00a6 8281      		ldd r24,Z+2
 1453 00a8 682E      		mov r6,r24
 1454               	.LVL149:
 1455 00aa 7724      		clr r7
 1456               	.LVL150:
 1457 00ac 8824      		clr r8
 1458 00ae 9924      		clr r9
 1459               	.LVL151:
 1460 00b0 F9E0      		ldi r31,9
 1461 00b2 660C      	1:	lsl r6
 1462 00b4 771C      		rol r7
 1463 00b6 881C      		rol r8
 1464 00b8 991C      		rol r9
 1465 00ba FA95      		dec r31
 1466 00bc 01F4      		brne 1b
 1467               	.LVL152:
 1468               	.LSM115:
 1469 00be 2115      		cp r18,__zero_reg__
 1470 00c0 3105      		cpc r19,__zero_reg__
 1471 00c2 4105      		cpc r20,__zero_reg__
 1472 00c4 5105      		cpc r21,__zero_reg__
 1473 00c6 01F0      		breq .L78
 1474 00c8 1901      		movw r2,r18
 1475 00ca 2A01      		movw r4,r20
 1476 00cc 0894      		sec
 1477 00ce 2108      		sbc r2,__zero_reg__
 1478 00d0 3108      		sbc r3,__zero_reg__
 1479 00d2 4108      		sbc r4,__zero_reg__
 1480 00d4 5108      		sbc r5,__zero_reg__
 1481 00d6 C601      		movw r24,r12
 1482 00d8 B501      		movw r22,r10
 1483 00da 6150      		subi r22,lo8(-(-1))
 1484 00dc 7040      		sbci r23,hi8(-(-1))
 1485 00de 8040      		sbci r24,hlo8(-(-1))
 1486 00e0 9040      		sbci r25,hhi8(-(-1))
 1487 00e2 A401      		movw r20,r8
 1488 00e4 9301      		movw r18,r6
 1489               	.LVL153:
 1490 00e6 0E94 0000 		call __udivmodsi4
 1491 00ea 7901      		movw r14,r18
 1492 00ec 8A01      		movw r16,r20
 1493 00ee C201      		movw r24,r4
 1494 00f0 B101      		movw r22,r2
 1495 00f2 A401      		movw r20,r8
 1496 00f4 9301      		movw r18,r6
 1497 00f6 0E94 0000 		call __udivmodsi4
 1498 00fa E216      		cp r14,r18
 1499 00fc F306      		cpc r15,r19
 1500 00fe 0407      		cpc r16,r20
 1501 0100 1507      		cpc r17,r21
 1502 0102 00F0      		brlo .L78
 1503               	.LSM116:
 1504 0104 8827      		clr r24
 1505 0106 9927      		clr r25
 1506 0108 DC01      		movw r26,r24
 1507 010a 8619      		sub r24,r6
 1508 010c 9709      		sbc r25,r7
 1509 010e A809      		sbc r26,r8
 1510 0110 B909      		sbc r27,r9
 1511 0112 8221      		and r24,r2
 1512 0114 9321      		and r25,r3
 1513 0116 A421      		and r26,r4
 1514 0118 B521      		and r27,r5
 1515 011a EC81      		ldd r30,Y+4
 1516 011c FD81      		ldd r31,Y+5
 1517 011e 8683      		std Z+6,r24
 1518 0120 9783      		std Z+7,r25
 1519 0122 A087      		std Z+8,r26
 1520 0124 B187      		std Z+9,r27
 1521               	.LSM117:
 1522 0126 A81A      		sub r10,r24
 1523 0128 B90A      		sbc r11,r25
 1524 012a CA0A      		sbc r12,r26
 1525 012c DB0A      		sbc r13,r27
 1526               	.LSM118:
 1527 012e 4289      		ldd r20,Z+18
 1528 0130 5389      		ldd r21,Z+19
 1529 0132 6489      		ldd r22,Z+20
 1530 0134 7589      		ldd r23,Z+21
 1531               	.LVL154:
 1532 0136 00C0      		rjmp .L79
 1533               	.LVL155:
 1534               	.L78:
 1535               	.LSM119:
 1536 0138 AC81      		ldd r26,Y+4
 1537 013a BD81      		ldd r27,Y+5
 1538 013c 1E96      		adiw r26,14
 1539 013e 4D91      		ld r20,X+
 1540 0140 5D91      		ld r21,X+
 1541 0142 6D91      		ld r22,X+
 1542 0144 7C91      		ld r23,X
 1543 0146 5197      		sbiw r26,14+3
 1544               	.LVL156:
 1545               	.LSM120:
 1546 0148 4115      		cp r20,__zero_reg__
 1547 014a 5105      		cpc r21,__zero_reg__
 1548 014c 6105      		cpc r22,__zero_reg__
 1549 014e 7105      		cpc r23,__zero_reg__
 1550 0150 01F4      		brne .L80
 1551               	.LSM121:
 1552 0152 8981      		ldd r24,Y+1
 1553 0154 9A81      		ldd r25,Y+2
 1554 0156 40E0      		ldi r20,lo8(0)
 1555 0158 50E0      		ldi r21,hi8(0)
 1556 015a 60E0      		ldi r22,hlo8(0)
 1557 015c 70E0      		ldi r23,hhi8(0)
 1558               	.LVL157:
 1559 015e 0E94 0000 		call create_chain
 1560               	.LVL158:
 1561 0162 AB01      		movw r20,r22
 1562 0164 BC01      		movw r22,r24
 1563               	.LVL159:
 1564               	.LSM122:
 1565 0166 4130      		cpi r20,lo8(1)
 1566 0168 5105      		cpc r21,__zero_reg__
 1567 016a 6105      		cpc r22,__zero_reg__
 1568 016c 7105      		cpc r23,__zero_reg__
 1569 016e 01F4      		brne .L81
 1570               	.L98:
 1571 0170 EC81      		ldd r30,Y+4
 1572 0172 FD81      		ldd r31,Y+5
 1573 0174 8481      		ldd r24,Z+4
 1574 0176 8068      		ori r24,lo8(-128)
 1575 0178 8483      		std Z+4,r24
 1576               	.LVL160:
 1577               	.L96:
 1578 017a F2E0      		ldi r31,lo8(2)
 1579 017c FB83      		std Y+3,r31
 1580               	.LVL161:
 1581 017e 00C0      		rjmp .L73
 1582               	.LVL162:
 1583               	.L81:
 1584               	.LSM123:
 1585 0180 4F3F      		cpi r20,lo8(-1)
 1586 0182 8FEF      		ldi r24,hi8(-1)
 1587 0184 5807      		cpc r21,r24
 1588 0186 8FEF      		ldi r24,hlo8(-1)
 1589 0188 6807      		cpc r22,r24
 1590 018a 8FEF      		ldi r24,hhi8(-1)
 1591 018c 7807      		cpc r23,r24
 1592 018e 01F0      		breq .L99
 1593               	.L82:
 1594               	.LSM124:
 1595 0190 EC81      		ldd r30,Y+4
 1596 0192 FD81      		ldd r31,Y+5
 1597 0194 4687      		std Z+14,r20
 1598 0196 5787      		std Z+15,r21
 1599 0198 608B      		std Z+16,r22
 1600 019a 718B      		std Z+17,r23
 1601               	.LVL163:
 1602               	.L80:
 1603               	.LSM125:
 1604 019c AC81      		ldd r26,Y+4
 1605 019e BD81      		ldd r27,Y+5
 1606 01a0 5296      		adiw r26,18
 1607 01a2 4D93      		st X+,r20
 1608 01a4 5D93      		st X+,r21
 1609 01a6 6D93      		st X+,r22
 1610 01a8 7C93      		st X,r23
 1611 01aa 5597      		sbiw r26,18+3
 1612               	.L79:
 1613               	.LSM126:
 1614 01ac 4115      		cp r20,__zero_reg__
 1615 01ae 5105      		cpc r21,__zero_reg__
 1616 01b0 6105      		cpc r22,__zero_reg__
 1617 01b2 7105      		cpc r23,__zero_reg__
 1618 01b4 01F0      		breq .+2
 1619 01b6 00C0      		rjmp .L95
 1620 01b8 00C0      		rjmp .L77
 1621               	.L90:
 1622               	.LSM127:
 1623 01ba EC81      		ldd r30,Y+4
 1624 01bc FD81      		ldd r31,Y+5
 1625 01be 8481      		ldd r24,Z+4
 1626 01c0 2081      		ld r18,Z
 1627 01c2 3181      		ldd r19,Z+1
 1628               	.LVL164:
 1629 01c4 81FF      		sbrs r24,1
 1630 01c6 00C0      		rjmp .L84
 1631               	.LSM128:
 1632 01c8 C901      		movw r24,r18
 1633 01ca 0E94 0000 		call create_chain
 1634               	.LVL165:
 1635 01ce AB01      		movw r20,r22
 1636 01d0 BC01      		movw r22,r24
 1637               	.LVL166:
 1638               	.LSM129:
 1639 01d2 4115      		cp r20,__zero_reg__
 1640 01d4 5105      		cpc r21,__zero_reg__
 1641 01d6 6105      		cpc r22,__zero_reg__
 1642 01d8 7105      		cpc r23,__zero_reg__
 1643 01da 01F4      		brne .L85
 1644 01dc 6401      		movw r12,r8
 1645 01de 5301      		movw r10,r6
 1646 01e0 00C0      		rjmp .L86
 1647               	.L84:
 1648               	.LSM130:
 1649 01e2 C901      		movw r24,r18
 1650 01e4 0E94 0000 		call get_fat
 1651               	.LVL167:
 1652 01e8 AB01      		movw r20,r22
 1653 01ea BC01      		movw r22,r24
 1654               	.LVL168:
 1655               	.L85:
 1656               	.LSM131:
 1657 01ec 4F3F      		cpi r20,lo8(-1)
 1658 01ee FFEF      		ldi r31,hi8(-1)
 1659 01f0 5F07      		cpc r21,r31
 1660 01f2 FFEF      		ldi r31,hlo8(-1)
 1661 01f4 6F07      		cpc r22,r31
 1662 01f6 FFEF      		ldi r31,hhi8(-1)
 1663 01f8 7F07      		cpc r23,r31
 1664 01fa 01F4      		brne .L87
 1665               	.L99:
 1666 01fc AC81      		ldd r26,Y+4
 1667 01fe BD81      		ldd r27,Y+5
 1668 0200 1496      		adiw r26,4
 1669 0202 8C91      		ld r24,X
 1670 0204 1497      		sbiw r26,4
 1671 0206 8068      		ori r24,lo8(-128)
 1672 0208 1496      		adiw r26,4
 1673 020a 8C93      		st X,r24
 1674 020c B1E0      		ldi r27,lo8(1)
 1675 020e 00C0      		rjmp .L97
 1676               	.L87:
 1677               	.LSM132:
 1678 0210 4230      		cpi r20,lo8(2)
 1679 0212 5105      		cpc r21,__zero_reg__
 1680 0214 6105      		cpc r22,__zero_reg__
 1681 0216 7105      		cpc r23,__zero_reg__
 1682 0218 00F4      		brsh .+2
 1683 021a 00C0      		rjmp .L98
 1684 021c AC81      		ldd r26,Y+4
 1685 021e BD81      		ldd r27,Y+5
 1686 0220 ED91      		ld r30,X+
 1687 0222 FC91      		ld r31,X
 1688 0224 8689      		ldd r24,Z+22
 1689 0226 9789      		ldd r25,Z+23
 1690 0228 A08D      		ldd r26,Z+24
 1691 022a B18D      		ldd r27,Z+25
 1692 022c 4817      		cp r20,r24
 1693 022e 5907      		cpc r21,r25
 1694 0230 6A07      		cpc r22,r26
 1695 0232 7B07      		cpc r23,r27
 1696 0234 00F0      		brlo .+2
 1697 0236 00C0      		rjmp .L98
 1698               	.L89:
 1699               	.LSM133:
 1700 0238 AC81      		ldd r26,Y+4
 1701 023a BD81      		ldd r27,Y+5
 1702 023c 5296      		adiw r26,18
 1703 023e 4D93      		st X+,r20
 1704 0240 5D93      		st X+,r21
 1705 0242 6D93      		st X+,r22
 1706 0244 7C93      		st X,r23
 1707 0246 5597      		sbiw r26,18+3
 1708               	.LSM134:
 1709 0248 EC81      		ldd r30,Y+4
 1710 024a FD81      		ldd r31,Y+5
 1711 024c 8681      		ldd r24,Z+6
 1712 024e 9781      		ldd r25,Z+7
 1713 0250 A085      		ldd r26,Z+8
 1714 0252 B185      		ldd r27,Z+9
 1715 0254 860D      		add r24,r6
 1716 0256 971D      		adc r25,r7
 1717 0258 A81D      		adc r26,r8
 1718 025a B91D      		adc r27,r9
 1719 025c 8683      		std Z+6,r24
 1720 025e 9783      		std Z+7,r25
 1721 0260 A087      		std Z+8,r26
 1722 0262 B187      		std Z+9,r27
 1723               	.LSM135:
 1724 0264 A618      		sub r10,r6
 1725 0266 B708      		sbc r11,r7
 1726 0268 C808      		sbc r12,r8
 1727 026a D908      		sbc r13,r9
 1728               	.LVL169:
 1729               	.L95:
 1730               	.LSM136:
 1731 026c 6A14      		cp r6,r10
 1732 026e 7B04      		cpc r7,r11
 1733 0270 8C04      		cpc r8,r12
 1734 0272 9D04      		cpc r9,r13
 1735 0274 00F4      		brsh .+2
 1736 0276 00C0      		rjmp .L90
 1737               	.L86:
 1738               	.LSM137:
 1739 0278 EC81      		ldd r30,Y+4
 1740 027a FD81      		ldd r31,Y+5
 1741 027c 8681      		ldd r24,Z+6
 1742 027e 9781      		ldd r25,Z+7
 1743 0280 A085      		ldd r26,Z+8
 1744 0282 B185      		ldd r27,Z+9
 1745 0284 8A0D      		add r24,r10
 1746 0286 9B1D      		adc r25,r11
 1747 0288 AC1D      		adc r26,r12
 1748 028a BD1D      		adc r27,r13
 1749 028c 8683      		std Z+6,r24
 1750 028e 9783      		std Z+7,r25
 1751 0290 A087      		std Z+8,r26
 1752 0292 B187      		std Z+9,r27
 1753               	.LSM138:
 1754 0294 D601      		movw r26,r12
 1755 0296 C501      		movw r24,r10
 1756 0298 9170      		andi r25,hi8(511)
 1757 029a A070      		andi r26,hlo8(511)
 1758 029c B070      		andi r27,hhi8(511)
 1759 029e 0097      		sbiw r24,0
 1760 02a0 A105      		cpc r26,__zero_reg__
 1761 02a2 B105      		cpc r27,__zero_reg__
 1762 02a4 01F0      		breq .L77
 1763               	.LSM139:
 1764 02a6 8081      		ld r24,Z
 1765 02a8 9181      		ldd r25,Z+1
 1766 02aa 0E94 0000 		call clust2sect
 1767               	.LVL170:
 1768               	.LSM140:
 1769 02ae 6115      		cp r22,__zero_reg__
 1770 02b0 7105      		cpc r23,__zero_reg__
 1771 02b2 8105      		cpc r24,__zero_reg__
 1772 02b4 9105      		cpc r25,__zero_reg__
 1773               	.LVL171:
 1774 02b6 01F4      		brne .L91
 1775 02b8 AC81      		ldd r26,Y+4
 1776 02ba BD81      		ldd r27,Y+5
 1777 02bc 1496      		adiw r26,4
 1778 02be 8C91      		ld r24,X
 1779 02c0 1497      		sbiw r26,4
 1780 02c2 8068      		ori r24,lo8(-128)
 1781 02c4 1496      		adiw r26,4
 1782 02c6 8C93      		st X,r24
 1783 02c8 B2E0      		ldi r27,lo8(2)
 1784               	.LVL172:
 1785               	.L97:
 1786 02ca BB83      		std Y+3,r27
 1787               	.LVL173:
 1788 02cc 00C0      		rjmp .L73
 1789               	.LVL174:
 1790               	.L91:
 1791               	.LSM141:
 1792 02ce A601      		movw r20,r12
 1793 02d0 9501      		movw r18,r10
 1794               	.LVL175:
 1795 02d2 E9E0      		ldi r30,9
 1796 02d4 5695      	1:	lsr r21
 1797 02d6 4795      		ror r20
 1798 02d8 3795      		ror r19
 1799 02da 2795      		ror r18
 1800 02dc EA95      		dec r30
 1801 02de 01F4      		brne 1b
 1802 02e0 260F      		add r18,r22
 1803 02e2 371F      		adc r19,r23
 1804 02e4 481F      		adc r20,r24
 1805 02e6 591F      		adc r21,r25
 1806 02e8 00C0      		rjmp .L92
 1807               	.LVL176:
 1808               	.L77:
 1809 02ea 20E0      		ldi r18,lo8(0)
 1810 02ec 30E0      		ldi r19,hi8(0)
 1811 02ee 40E0      		ldi r20,hlo8(0)
 1812 02f0 50E0      		ldi r21,hhi8(0)
 1813               	.LVL177:
 1814               	.L92:
 1815               	.LSM142:
 1816 02f2 EC81      		ldd r30,Y+4
 1817 02f4 FD81      		ldd r31,Y+5
 1818 02f6 8681      		ldd r24,Z+6
 1819 02f8 9781      		ldd r25,Z+7
 1820 02fa A085      		ldd r26,Z+8
 1821 02fc B185      		ldd r27,Z+9
 1822 02fe 9170      		andi r25,hi8(511)
 1823 0300 A070      		andi r26,hlo8(511)
 1824 0302 B070      		andi r27,hhi8(511)
 1825 0304 0097      		sbiw r24,0
 1826 0306 A105      		cpc r26,__zero_reg__
 1827 0308 B105      		cpc r27,__zero_reg__
 1828 030a 01F0      		breq .L93
 1829 030c 8689      		ldd r24,Z+22
 1830 030e 9789      		ldd r25,Z+23
 1831 0310 A08D      		ldd r26,Z+24
 1832 0312 B18D      		ldd r27,Z+25
 1833 0314 2817      		cp r18,r24
 1834 0316 3907      		cpc r19,r25
 1835 0318 4A07      		cpc r20,r26
 1836 031a 5B07      		cpc r21,r27
 1837 031c 01F0      		breq .L93
 1838               	.LSM143:
 1839 031e 268B      		std Z+22,r18
 1840 0320 378B      		std Z+23,r19
 1841 0322 408F      		std Z+24,r20
 1842 0324 518F      		std Z+25,r21
 1843               	.L93:
 1844               	.LSM144:
 1845 0326 EC81      		ldd r30,Y+4
 1846 0328 FD81      		ldd r31,Y+5
 1847 032a 2681      		ldd r18,Z+6
 1848 032c 3781      		ldd r19,Z+7
 1849 032e 4085      		ldd r20,Z+8
 1850 0330 5185      		ldd r21,Z+9
 1851               	.LVL178:
 1852 0332 8285      		ldd r24,Z+10
 1853 0334 9385      		ldd r25,Z+11
 1854 0336 A485      		ldd r26,Z+12
 1855 0338 B585      		ldd r27,Z+13
 1856 033a 8217      		cp r24,r18
 1857 033c 9307      		cpc r25,r19
 1858 033e A407      		cpc r26,r20
 1859 0340 B507      		cpc r27,r21
 1860 0342 00F4      		brsh .L73
 1861               	.LSM145:
 1862 0344 2287      		std Z+10,r18
 1863 0346 3387      		std Z+11,r19
 1864 0348 4487      		std Z+12,r20
 1865 034a 5587      		std Z+13,r21
 1866               	.LSM146:
 1867 034c 8481      		ldd r24,Z+4
 1868 034e 8062      		ori r24,lo8(32)
 1869 0350 8483      		std Z+4,r24
 1870               	.LVL179:
 1871               	.L73:
 1872               	.LBE3:
 1873               	.LSM147:
 1874 0352 8B81      		ldd r24,Y+3
 1875               	/* epilogue start */
 1876 0354 0F90      		pop __tmp_reg__
 1877 0356 0F90      		pop __tmp_reg__
 1878 0358 0F90      		pop __tmp_reg__
 1879 035a 0F90      		pop __tmp_reg__
 1880 035c 0F90      		pop __tmp_reg__
 1881 035e CF91      		pop r28
 1882 0360 DF91      		pop r29
 1883 0362 1F91      		pop r17
 1884 0364 0F91      		pop r16
 1885 0366 FF90      		pop r15
 1886 0368 EF90      		pop r14
 1887 036a DF90      		pop r13
 1888 036c CF90      		pop r12
 1889 036e BF90      		pop r11
 1890 0370 AF90      		pop r10
 1891               	.LVL180:
 1892 0372 9F90      		pop r9
 1893 0374 8F90      		pop r8
 1894               	.LVL181:
 1895 0376 7F90      		pop r7
 1896               	.LVL182:
 1897 0378 6F90      		pop r6
 1898               	.LVL183:
 1899 037a 5F90      		pop r5
 1900 037c 4F90      		pop r4
 1901 037e 3F90      		pop r3
 1902 0380 2F90      		pop r2
 1903 0382 0895      		ret
 1904               	.LFE154:
 1906               		.section	.text.dir_sdi,"ax",@progbits
 1908               	dir_sdi:
 1909               	.LFB139:
 1910               	.LSM148:
 1911               	.LVL184:
 1912 0000 EF92      		push r14
 1913 0002 FF92      		push r15
 1914 0004 0F93      		push r16
 1915 0006 1F93      		push r17
 1916 0008 CF93      		push r28
 1917 000a DF93      		push r29
 1918               	/* prologue: function */
 1919               	/* frame size = 0 */
 1920 000c 8C01      		movw r16,r24
 1921 000e EB01      		movw r28,r22
 1922               	.LSM149:
 1923 0010 DC01      		movw r26,r24
 1924 0012 1596      		adiw r26,4+1
 1925 0014 7C93      		st X,r23
 1926 0016 6E93      		st -X,r22
 1927 0018 1497      		sbiw r26,4
 1928               	.LSM150:
 1929 001a 1696      		adiw r26,6
 1930 001c 4D91      		ld r20,X+
 1931 001e 5D91      		ld r21,X+
 1932 0020 6D91      		ld r22,X+
 1933 0022 7C91      		ld r23,X
 1934 0024 1997      		sbiw r26,6+3
 1935               	.LVL185:
 1936               	.LSM151:
 1937 0026 4130      		cpi r20,lo8(1)
 1938 0028 5105      		cpc r21,__zero_reg__
 1939 002a 6105      		cpc r22,__zero_reg__
 1940 002c 7105      		cpc r23,__zero_reg__
 1941 002e 01F4      		brne .+2
 1942 0030 00C0      		rjmp .L101
 1943 0032 ED91      		ld r30,X+
 1944 0034 FC91      		ld r31,X
 1945 0036 8689      		ldd r24,Z+22
 1946 0038 9789      		ldd r25,Z+23
 1947 003a A08D      		ldd r26,Z+24
 1948 003c B18D      		ldd r27,Z+25
 1949               	.LVL186:
 1950 003e 4817      		cp r20,r24
 1951 0040 5907      		cpc r21,r25
 1952 0042 6A07      		cpc r22,r26
 1953 0044 7B07      		cpc r23,r27
 1954 0046 00F0      		brlo .+2
 1955 0048 00C0      		rjmp .L101
 1956               	.LSM152:
 1957 004a 4115      		cp r20,__zero_reg__
 1958 004c 5105      		cpc r21,__zero_reg__
 1959 004e 6105      		cpc r22,__zero_reg__
 1960 0050 7105      		cpc r23,__zero_reg__
 1961 0052 01F4      		brne .L102
 1962 0054 8081      		ld r24,Z
 1963 0056 8330      		cpi r24,lo8(3)
 1964 0058 01F4      		brne .L103
 1965               	.LSM153:
 1966 005a 42A1      		ldd r20,Z+34
 1967 005c 53A1      		ldd r21,Z+35
 1968 005e 64A1      		ldd r22,Z+36
 1969 0060 75A1      		ldd r23,Z+37
 1970               	.LSM154:
 1971 0062 4115      		cp r20,__zero_reg__
 1972 0064 5105      		cpc r21,__zero_reg__
 1973 0066 6105      		cpc r22,__zero_reg__
 1974 0068 7105      		cpc r23,__zero_reg__
 1975 006a 01F4      		brne .L102
 1976               	.L103:
 1977               	.LSM155:
 1978 006c F801      		movw r30,r16
 1979 006e 1286      		std Z+10,__zero_reg__
 1980 0070 1386      		std Z+11,__zero_reg__
 1981 0072 1486      		std Z+12,__zero_reg__
 1982 0074 1586      		std Z+13,__zero_reg__
 1983               	.LSM156:
 1984 0076 0190      		ld __tmp_reg__,Z+
 1985 0078 F081      		ld r31,Z
 1986 007a E02D      		mov r30,__tmp_reg__
 1987 007c 8085      		ldd r24,Z+8
 1988 007e 9185      		ldd r25,Z+9
 1989 0080 C817      		cp r28,r24
 1990 0082 D907      		cpc r29,r25
 1991 0084 00F0      		brlo .+2
 1992 0086 00C0      		rjmp .L101
 1993               	.LVL187:
 1994               	.LSM157:
 1995 0088 CE01      		movw r24,r28
 1996 008a 24E0      		ldi r18,4
 1997 008c 9695      	1:	lsr r25
 1998 008e 8795      		ror r24
 1999 0090 2A95      		dec r18
 2000 0092 01F4      		brne 1b
 2001 0094 A0E0      		ldi r26,lo8(0)
 2002 0096 B0E0      		ldi r27,hi8(0)
 2003 0098 22A1      		ldd r18,Z+34
 2004 009a 33A1      		ldd r19,Z+35
 2005 009c 44A1      		ldd r20,Z+36
 2006 009e 55A1      		ldd r21,Z+37
 2007 00a0 820F      		add r24,r18
 2008 00a2 931F      		adc r25,r19
 2009 00a4 A41F      		adc r26,r20
 2010 00a6 B51F      		adc r27,r21
 2011 00a8 F801      		movw r30,r16
 2012 00aa 8687      		std Z+14,r24
 2013 00ac 9787      		std Z+15,r25
 2014 00ae A08B      		std Z+16,r26
 2015 00b0 B18B      		std Z+17,r27
 2016 00b2 00C0      		rjmp .L104
 2017               	.LVL188:
 2018               	.L102:
 2019               	.LSM158:
 2020 00b4 8281      		ldd r24,Z+2
 2021 00b6 E82E      		mov r14,r24
 2022               	.LVL189:
 2023 00b8 FF24      		clr r15
 2024               	.LVL190:
 2025 00ba 84E0      		ldi r24,4
 2026 00bc EE0C      	1:	lsl r14
 2027 00be FF1C      		rol r15
 2028 00c0 8A95      		dec r24
 2029 00c2 01F4      		brne 1b
 2030               	.LVL191:
 2031 00c4 00C0      		rjmp .L105
 2032               	.LVL192:
 2033               	.L108:
 2034               	.LSM159:
 2035 00c6 0E94 0000 		call get_fat
 2036               	.LVL193:
 2037 00ca AB01      		movw r20,r22
 2038 00cc BC01      		movw r22,r24
 2039               	.LVL194:
 2040               	.LSM160:
 2041 00ce 4F3F      		cpi r20,lo8(-1)
 2042 00d0 FFEF      		ldi r31,hi8(-1)
 2043 00d2 5F07      		cpc r21,r31
 2044 00d4 FFEF      		ldi r31,hlo8(-1)
 2045 00d6 6F07      		cpc r22,r31
 2046 00d8 FFEF      		ldi r31,hhi8(-1)
 2047 00da 7F07      		cpc r23,r31
 2048 00dc 01F4      		brne .L106
 2049 00de 81E0      		ldi r24,lo8(1)
 2050 00e0 00C0      		rjmp .L107
 2051               	.L106:
 2052               	.LSM161:
 2053 00e2 4230      		cpi r20,lo8(2)
 2054 00e4 5105      		cpc r21,__zero_reg__
 2055 00e6 6105      		cpc r22,__zero_reg__
 2056 00e8 7105      		cpc r23,__zero_reg__
 2057 00ea 00F4      		brsh .+2
 2058 00ec 00C0      		rjmp .L101
 2059 00ee D801      		movw r26,r16
 2060 00f0 ED91      		ld r30,X+
 2061 00f2 FC91      		ld r31,X
 2062 00f4 8689      		ldd r24,Z+22
 2063 00f6 9789      		ldd r25,Z+23
 2064 00f8 A08D      		ldd r26,Z+24
 2065 00fa B18D      		ldd r27,Z+25
 2066 00fc 4817      		cp r20,r24
 2067 00fe 5907      		cpc r21,r25
 2068 0100 6A07      		cpc r22,r26
 2069 0102 7B07      		cpc r23,r27
 2070 0104 00F4      		brsh .L101
 2071               	.LSM162:
 2072 0106 CE19      		sub r28,r14
 2073 0108 DF09      		sbc r29,r15
 2074               	.LVL195:
 2075               	.L105:
 2076 010a F801      		movw r30,r16
 2077 010c 8081      		ld r24,Z
 2078 010e 9181      		ldd r25,Z+1
 2079               	.LSM163:
 2080 0110 CE15      		cp r28,r14
 2081 0112 DF05      		cpc r29,r15
 2082 0114 00F4      		brsh .L108
 2083               	.LSM164:
 2084 0116 D801      		movw r26,r16
 2085 0118 1A96      		adiw r26,10
 2086 011a 4D93      		st X+,r20
 2087 011c 5D93      		st X+,r21
 2088 011e 6D93      		st X+,r22
 2089 0120 7C93      		st X,r23
 2090 0122 1D97      		sbiw r26,10+3
 2091               	.LSM165:
 2092 0124 0E94 0000 		call clust2sect
 2093               	.LVL196:
 2094 0128 9E01      		movw r18,r28
 2095 012a B4E0      		ldi r27,4
 2096 012c 3695      	1:	lsr r19
 2097 012e 2795      		ror r18
 2098 0130 BA95      		dec r27
 2099 0132 01F4      		brne 1b
 2100 0134 40E0      		ldi r20,lo8(0)
 2101 0136 50E0      		ldi r21,hi8(0)
 2102 0138 260F      		add r18,r22
 2103 013a 371F      		adc r19,r23
 2104 013c 481F      		adc r20,r24
 2105 013e 591F      		adc r21,r25
 2106 0140 F801      		movw r30,r16
 2107 0142 2687      		std Z+14,r18
 2108 0144 3787      		std Z+15,r19
 2109 0146 408B      		std Z+16,r20
 2110 0148 518B      		std Z+17,r21
 2111               	.LVL197:
 2112               	.L104:
 2113               	.LSM166:
 2114 014a CF70      		andi r28,lo8(15)
 2115 014c D070      		andi r29,hi8(15)
 2116 014e A5E0      		ldi r26,5
 2117 0150 CC0F      	1:	lsl r28
 2118 0152 DD1F      		rol r29
 2119 0154 AA95      		dec r26
 2120 0156 01F4      		brne 1b
 2121 0158 AE96      		adiw r28,46
 2122 015a D801      		movw r26,r16
 2123 015c 8D91      		ld r24,X+
 2124 015e 9C91      		ld r25,X
 2125 0160 1197      		sbiw r26,1
 2126 0162 8C0F      		add r24,r28
 2127 0164 9D1F      		adc r25,r29
 2128 0166 5396      		adiw r26,18+1
 2129 0168 9C93      		st X,r25
 2130 016a 8E93      		st -X,r24
 2131 016c 5297      		sbiw r26,18
 2132 016e 80E0      		ldi r24,lo8(0)
 2133 0170 00C0      		rjmp .L107
 2134               	.LVL198:
 2135               	.L101:
 2136               	.LSM167:
 2137 0172 82E0      		ldi r24,lo8(2)
 2138               	.L107:
 2139               	/* epilogue start */
 2140               	.LSM168:
 2141 0174 DF91      		pop r29
 2142 0176 CF91      		pop r28
 2143               	.LVL199:
 2144 0178 1F91      		pop r17
 2145 017a 0F91      		pop r16
 2146               	.LVL200:
 2147 017c FF90      		pop r15
 2148               	.LVL201:
 2149 017e EF90      		pop r14
 2150               	.LVL202:
 2151 0180 0895      		ret
 2152               	.LFE139:
 2154               		.section	.text.f_write,"ax",@progbits
 2155               	.global	f_write
 2157               	f_write:
 2158               	.LFB151:
 2159               	.LSM169:
 2160               	.LVL203:
 2161 0000 2F92      		push r2
 2162 0002 3F92      		push r3
 2163 0004 4F92      		push r4
 2164 0006 5F92      		push r5
 2165 0008 6F92      		push r6
 2166 000a 7F92      		push r7
 2167 000c 8F92      		push r8
 2168 000e 9F92      		push r9
 2169 0010 AF92      		push r10
 2170 0012 BF92      		push r11
 2171 0014 CF92      		push r12
 2172 0016 DF92      		push r13
 2173 0018 EF92      		push r14
 2174 001a FF92      		push r15
 2175 001c 0F93      		push r16
 2176 001e 1F93      		push r17
 2177 0020 CF93      		push r28
 2178 0022 DF93      		push r29
 2179               	/* prologue: function */
 2180               	/* frame size = 0 */
 2181 0024 EC01      		movw r28,r24
 2182 0026 162F      		mov r17,r22
 2183 0028 072F      		mov r16,r23
 2184               	.LVL204:
 2185 002a 3A01      		movw r6,r20
 2186 002c 1901      		movw r2,r18
 2187               	.LSM170:
 2188 002e F901      		movw r30,r18
 2189 0030 1182      		std Z+1,__zero_reg__
 2190 0032 1082      		st Z,__zero_reg__
 2191               	.LSM171:
 2192 0034 6A81      		ldd r22,Y+2
 2193 0036 7B81      		ldd r23,Y+3
 2194               	.LVL205:
 2195 0038 8881      		ld r24,Y
 2196 003a 9981      		ldd r25,Y+1
 2197               	.LVL206:
 2198 003c 0E94 0000 		call validate
 2199               	.LVL207:
 2200 0040 882E      		mov r8,r24
 2201               	.LVL208:
 2202               	.LSM172:
 2203 0042 8823      		tst r24
 2204 0044 01F0      		breq .+2
 2205 0046 00C0      		rjmp .L111
 2206               	.LVL209:
 2207               	.LSM173:
 2208 0048 8C81      		ldd r24,Y+4
 2209               	.LVL210:
 2210 004a 87FD      		sbrc r24,7
 2211 004c 00C0      		rjmp .L138
 2212               	.L112:
 2213               	.LSM174:
 2214 004e 81FD      		sbrc r24,1
 2215 0050 00C0      		rjmp .L113
 2216 0052 07E0      		ldi r16,lo8(7)
 2217 0054 802E      		mov r8,r16
 2218               	.LVL211:
 2219 0056 00C0      		rjmp .L111
 2220               	.LVL212:
 2221               	.L113:
 2222               	.LSM175:
 2223 0058 2A85      		ldd r18,Y+10
 2224 005a 3B85      		ldd r19,Y+11
 2225 005c 4C85      		ldd r20,Y+12
 2226 005e 5D85      		ldd r21,Y+13
 2227 0060 C301      		movw r24,r6
 2228 0062 A0E0      		ldi r26,lo8(0)
 2229 0064 B0E0      		ldi r27,hi8(0)
 2230               	.LVL213:
 2231 0066 820F      		add r24,r18
 2232 0068 931F      		adc r25,r19
 2233 006a A41F      		adc r26,r20
 2234 006c B51F      		adc r27,r21
 2235               	.LVL214:
 2236 006e 8217      		cp r24,r18
 2237 0070 9307      		cpc r25,r19
 2238 0072 A407      		cpc r26,r20
 2239 0074 B507      		cpc r27,r21
 2240 0076 00F4      		brsh .L114
 2241 0078 6624      		clr r6
 2242 007a 7724      		clr r7
 2243               	.LVL215:
 2244               	.L114:
 2245               	.LSM176:
 2246 007c 812F      		mov r24,r17
 2247               	.LVL216:
 2248 007e 902F      		mov r25,r16
 2249               	.LVL217:
 2250 0080 9C01      		movw r18,r24
 2251               	.LVL218:
 2252 0082 2901      		movw r4,r18
 2253               	.LVL219:
 2254 0084 00C0      		rjmp .L115
 2255               	.LVL220:
 2256               	.L135:
 2257               	.LSM177:
 2258 0086 2E81      		ldd r18,Y+6
 2259 0088 3F81      		ldd r19,Y+7
 2260 008a 4885      		ldd r20,Y+8
 2261 008c 5985      		ldd r21,Y+9
 2262 008e DA01      		movw r26,r20
 2263 0090 C901      		movw r24,r18
 2264 0092 9170      		andi r25,hi8(511)
 2265 0094 A070      		andi r26,hlo8(511)
 2266 0096 B070      		andi r27,hhi8(511)
 2267 0098 0097      		sbiw r24,0
 2268 009a A105      		cpc r26,__zero_reg__
 2269 009c B105      		cpc r27,__zero_reg__
 2270 009e 01F0      		breq .+2
 2271 00a0 00C0      		rjmp .L116
 2272               	.LSM178:
 2273 00a2 E881      		ld r30,Y
 2274 00a4 F981      		ldd r31,Y+1
 2275 00a6 DA01      		movw r26,r20
 2276 00a8 C901      		movw r24,r18
 2277 00aa 19E0      		ldi r17,9
 2278 00ac B695      	1:	lsr r27
 2279 00ae A795      		ror r26
 2280 00b0 9795      		ror r25
 2281 00b2 8795      		ror r24
 2282 00b4 1A95      		dec r17
 2283 00b6 01F4      		brne 1b
 2284               	.LVL221:
 2285 00b8 9280      		ldd r9,Z+2
 2286 00ba 9A94      		dec r9
 2287 00bc 9822      		and r9,r24
 2288               	.LSM179:
 2289 00be 01F0      		breq .+2
 2290 00c0 00C0      		rjmp .L117
 2291               	.LSM180:
 2292 00c2 2115      		cp r18,__zero_reg__
 2293 00c4 3105      		cpc r19,__zero_reg__
 2294 00c6 4105      		cpc r20,__zero_reg__
 2295 00c8 5105      		cpc r21,__zero_reg__
 2296 00ca 01F4      		brne .L118
 2297               	.LSM181:
 2298 00cc 6E85      		ldd r22,Y+14
 2299 00ce 7F85      		ldd r23,Y+15
 2300 00d0 8889      		ldd r24,Y+16
 2301 00d2 9989      		ldd r25,Y+17
 2302               	.LVL222:
 2303               	.LSM182:
 2304 00d4 6115      		cp r22,__zero_reg__
 2305 00d6 7105      		cpc r23,__zero_reg__
 2306 00d8 8105      		cpc r24,__zero_reg__
 2307 00da 9105      		cpc r25,__zero_reg__
 2308 00dc 01F4      		brne .L119
 2309               	.LSM183:
 2310 00de CF01      		movw r24,r30
 2311 00e0 40E0      		ldi r20,lo8(0)
 2312 00e2 50E0      		ldi r21,hi8(0)
 2313 00e4 60E0      		ldi r22,hlo8(0)
 2314 00e6 70E0      		ldi r23,hhi8(0)
 2315 00e8 0E94 0000 		call create_chain
 2316               	.LVL223:
 2317 00ec 6E87      		std Y+14,r22
 2318 00ee 7F87      		std Y+15,r23
 2319 00f0 888B      		std Y+16,r24
 2320 00f2 998B      		std Y+17,r25
 2321               	.LVL224:
 2322 00f4 00C0      		rjmp .L120
 2323               	.LVL225:
 2324               	.L118:
 2325               	.LSM184:
 2326 00f6 4A89      		ldd r20,Y+18
 2327 00f8 5B89      		ldd r21,Y+19
 2328 00fa 6C89      		ldd r22,Y+20
 2329 00fc 7D89      		ldd r23,Y+21
 2330 00fe CF01      		movw r24,r30
 2331 0100 0E94 0000 		call create_chain
 2332               	.LVL226:
 2333               	.L120:
 2334               	.LSM185:
 2335 0104 6115      		cp r22,__zero_reg__
 2336 0106 7105      		cpc r23,__zero_reg__
 2337 0108 8105      		cpc r24,__zero_reg__
 2338 010a 9105      		cpc r25,__zero_reg__
 2339 010c 01F4      		brne .+2
 2340 010e 00C0      		rjmp .L121
 2341               	.LVL227:
 2342               	.L119:
 2343               	.LSM186:
 2344 0110 6130      		cpi r22,lo8(1)
 2345 0112 7105      		cpc r23,__zero_reg__
 2346 0114 8105      		cpc r24,__zero_reg__
 2347 0116 9105      		cpc r25,__zero_reg__
 2348 0118 01F4      		brne .L122
 2349               	.LVL228:
 2350               	.L140:
 2351 011a 8C81      		ldd r24,Y+4
 2352 011c 8068      		ori r24,lo8(-128)
 2353 011e 8C83      		std Y+4,r24
 2354               	.LVL229:
 2355               	.L138:
 2356 0120 E2E0      		ldi r30,lo8(2)
 2357 0122 8E2E      		mov r8,r30
 2358 0124 00C0      		rjmp .L111
 2359               	.LVL230:
 2360               	.L122:
 2361               	.LSM187:
 2362 0126 6F3F      		cpi r22,lo8(-1)
 2363 0128 FFEF      		ldi r31,hi8(-1)
 2364 012a 7F07      		cpc r23,r31
 2365 012c FFEF      		ldi r31,hlo8(-1)
 2366 012e 8F07      		cpc r24,r31
 2367 0130 FFEF      		ldi r31,hhi8(-1)
 2368 0132 9F07      		cpc r25,r31
 2369 0134 01F4      		brne .+2
 2370 0136 00C0      		rjmp .L139
 2371               	.L123:
 2372               	.LSM188:
 2373 0138 6A8B      		std Y+18,r22
 2374 013a 7B8B      		std Y+19,r23
 2375 013c 8C8B      		std Y+20,r24
 2376 013e 9D8B      		std Y+21,r25
 2377               	.L117:
 2378               	.LSM189:
 2379 0140 E881      		ld r30,Y
 2380 0142 F981      		ldd r31,Y+1
 2381 0144 22A5      		ldd r18,Z+42
 2382 0146 33A5      		ldd r19,Z+43
 2383 0148 44A5      		ldd r20,Z+44
 2384 014a 55A5      		ldd r21,Z+45
 2385 014c 8E89      		ldd r24,Y+22
 2386 014e 9F89      		ldd r25,Y+23
 2387 0150 A88D      		ldd r26,Y+24
 2388 0152 B98D      		ldd r27,Y+25
 2389 0154 2817      		cp r18,r24
 2390 0156 3907      		cpc r19,r25
 2391 0158 4A07      		cpc r20,r26
 2392 015a 5B07      		cpc r21,r27
 2393 015c 01F4      		brne .L124
 2394 015e CF01      		movw r24,r30
 2395 0160 40E0      		ldi r20,lo8(0)
 2396 0162 50E0      		ldi r21,hi8(0)
 2397 0164 60E0      		ldi r22,hlo8(0)
 2398 0166 70E0      		ldi r23,hhi8(0)
 2399 0168 0E94 0000 		call move_window
 2400               	.LVL231:
 2401 016c 8823      		tst r24
 2402 016e 01F0      		breq .+2
 2403 0170 00C0      		rjmp .L139
 2404               	.LVL232:
 2405               	.L124:
 2406               	.LSM190:
 2407 0172 0881      		ld r16,Y
 2408 0174 1981      		ldd r17,Y+1
 2409               	.LVL233:
 2410 0176 4A89      		ldd r20,Y+18
 2411 0178 5B89      		ldd r21,Y+19
 2412 017a 6C89      		ldd r22,Y+20
 2413 017c 7D89      		ldd r23,Y+21
 2414 017e C801      		movw r24,r16
 2415 0180 0E94 0000 		call clust2sect
 2416               	.LVL234:
 2417               	.LSM191:
 2418 0184 6115      		cp r22,__zero_reg__
 2419 0186 7105      		cpc r23,__zero_reg__
 2420 0188 8105      		cpc r24,__zero_reg__
 2421 018a 9105      		cpc r25,__zero_reg__
 2422 018c 01F0      		breq .L140
 2423               	.LVL235:
 2424               	.L125:
 2425               	.LSM192:
 2426 018e 6B01      		movw r12,r22
 2427 0190 7C01      		movw r14,r24
 2428 0192 C90C      		add r12,r9
 2429 0194 D11C      		adc r13,__zero_reg__
 2430 0196 E11C      		adc r14,__zero_reg__
 2431 0198 F11C      		adc r15,__zero_reg__
 2432               	.LVL236:
 2433               	.LSM193:
 2434 019a 5301      		movw r10,r6
 2435 019c AB2C      		mov r10,r11
 2436 019e BB24      		clr r11
 2437 01a0 A694      		lsr r10
 2438               	.LSM194:
 2439 01a2 A114      		cp r10,__zero_reg__
 2440 01a4 B104      		cpc r11,__zero_reg__
 2441 01a6 01F4      		brne .+2
 2442 01a8 00C0      		rjmp .L126
 2443               	.LSM195:
 2444 01aa F801      		movw r30,r16
 2445 01ac 2281      		ldd r18,Z+2
 2446 01ae 492D      		mov r20,r9
 2447 01b0 50E0      		ldi r21,lo8(0)
 2448               	.LVL237:
 2449 01b2 C501      		movw r24,r10
 2450 01b4 840F      		add r24,r20
 2451 01b6 951F      		adc r25,r21
 2452 01b8 30E0      		ldi r19,lo8(0)
 2453 01ba 2817      		cp r18,r24
 2454 01bc 3907      		cpc r19,r25
 2455 01be 00F4      		brsh .L127
 2456               	.LVL238:
 2457               	.LSM196:
 2458 01c0 5901      		movw r10,r18
 2459 01c2 A41A      		sub r10,r20
 2460 01c4 B50A      		sbc r11,r21
 2461               	.L127:
 2462               	.LSM197:
 2463 01c6 F801      		movw r30,r16
 2464 01c8 8181      		ldd r24,Z+1
 2465 01ca B201      		movw r22,r4
 2466 01cc A701      		movw r20,r14
 2467 01ce 9601      		movw r18,r12
 2468 01d0 0A2D      		mov r16,r10
 2469 01d2 0E94 0000 		call disk_write
 2470               	.LVL239:
 2471 01d6 8823      		tst r24
 2472 01d8 01F0      		breq .+2
 2473 01da 00C0      		rjmp .L139
 2474               	.L128:
 2475               	.LSM198:
 2476 01dc E881      		ld r30,Y
 2477 01de F981      		ldd r31,Y+1
 2478 01e0 22A5      		ldd r18,Z+42
 2479 01e2 33A5      		ldd r19,Z+43
 2480 01e4 44A5      		ldd r20,Z+44
 2481 01e6 55A5      		ldd r21,Z+45
 2482 01e8 2C19      		sub r18,r12
 2483 01ea 3D09      		sbc r19,r13
 2484 01ec 4E09      		sbc r20,r14
 2485 01ee 5F09      		sbc r21,r15
 2486 01f0 C501      		movw r24,r10
 2487 01f2 A0E0      		ldi r26,lo8(0)
 2488 01f4 B0E0      		ldi r27,hi8(0)
 2489               	.LVL240:
 2490 01f6 2817      		cp r18,r24
 2491 01f8 3907      		cpc r19,r25
 2492 01fa 4A07      		cpc r20,r26
 2493 01fc 5B07      		cpc r21,r27
 2494 01fe 00F4      		brsh .L129
 2495               	.LVL241:
 2496               	.LSM199:
 2497 0200 69E0      		ldi r22,9
 2498 0202 220F      	1:	lsl r18
 2499 0204 331F      		rol r19
 2500 0206 441F      		rol r20
 2501 0208 551F      		rol r21
 2502 020a 6A95      		dec r22
 2503 020c 01F4      		brne 1b
 2504 020e B201      		movw r22,r4
 2505 0210 620F      		add r22,r18
 2506 0212 731F      		adc r23,r19
 2507 0214 CF01      		movw r24,r30
 2508               	.LVL242:
 2509 0216 8E96      		adiw r24,46
 2510 0218 40E0      		ldi r20,lo8(512)
 2511 021a 52E0      		ldi r21,hi8(512)
 2512 021c 0E94 0000 		call mem_cpy
 2513               	.LVL243:
 2514               	.LSM200:
 2515 0220 E881      		ld r30,Y
 2516 0222 F981      		ldd r31,Y+1
 2517 0224 1482      		std Z+4,__zero_reg__
 2518               	.LVL244:
 2519               	.L129:
 2520               	.LSM201:
 2521 0226 8501      		movw r16,r10
 2522               	.LVL245:
 2523 0228 102F      		mov r17,r16
 2524 022a 0027      		clr r16
 2525 022c 110F      		lsl r17
 2526 022e 00C0      		rjmp .L130
 2527               	.LVL246:
 2528               	.L126:
 2529               	.LSM202:
 2530 0230 2E81      		ldd r18,Y+6
 2531 0232 3F81      		ldd r19,Y+7
 2532 0234 4885      		ldd r20,Y+8
 2533 0236 5985      		ldd r21,Y+9
 2534 0238 8A85      		ldd r24,Y+10
 2535 023a 9B85      		ldd r25,Y+11
 2536 023c AC85      		ldd r26,Y+12
 2537 023e BD85      		ldd r27,Y+13
 2538 0240 2817      		cp r18,r24
 2539 0242 3907      		cpc r19,r25
 2540 0244 4A07      		cpc r20,r26
 2541 0246 5B07      		cpc r21,r27
 2542 0248 00F0      		brlo .L131
 2543               	.LSM203:
 2544 024a C801      		movw r24,r16
 2545 024c 40E0      		ldi r20,lo8(0)
 2546 024e 50E0      		ldi r21,hi8(0)
 2547 0250 60E0      		ldi r22,hlo8(0)
 2548 0252 70E0      		ldi r23,hhi8(0)
 2549 0254 0E94 0000 		call move_window
 2550 0258 8823      		tst r24
 2551 025a 01F4      		brne .L139
 2552               	.L132:
 2553               	.LSM204:
 2554 025c E881      		ld r30,Y
 2555 025e F981      		ldd r31,Y+1
 2556 0260 C2A6      		std Z+42,r12
 2557 0262 D3A6      		std Z+43,r13
 2558 0264 E4A6      		std Z+44,r14
 2559 0266 F5A6      		std Z+45,r15
 2560               	.L131:
 2561               	.LSM205:
 2562 0268 CE8A      		std Y+22,r12
 2563 026a DF8A      		std Y+23,r13
 2564 026c E88E      		std Y+24,r14
 2565 026e F98E      		std Y+25,r15
 2566               	.LVL247:
 2567               	.L116:
 2568               	.LSM206:
 2569 0270 EE80      		ldd r14,Y+6
 2570 0272 FF80      		ldd r15,Y+7
 2571 0274 0885      		ldd r16,Y+8
 2572 0276 1985      		ldd r17,Y+9
 2573               	.LSM207:
 2574 0278 4E89      		ldd r20,Y+22
 2575 027a 5F89      		ldd r21,Y+23
 2576 027c 688D      		ldd r22,Y+24
 2577 027e 798D      		ldd r23,Y+25
 2578 0280 8881      		ld r24,Y
 2579 0282 9981      		ldd r25,Y+1
 2580 0284 0E94 0000 		call move_window
 2581               	.LVL248:
 2582 0288 8823      		tst r24
 2583 028a 01F0      		breq .L133
 2584               	.LVL249:
 2585               	.L139:
 2586               	.LSM208:
 2587 028c 8C81      		ldd r24,Y+4
 2588 028e 8068      		ori r24,lo8(-128)
 2589 0290 8C83      		std Y+4,r24
 2590 0292 8824      		clr r8
 2591 0294 8394      		inc r8
 2592 0296 00C0      		rjmp .L111
 2593               	.LVL250:
 2594               	.L133:
 2595               	.LSM209:
 2596 0298 C701      		movw r24,r14
 2597 029a 9170      		andi r25,hi8(511)
 2598 029c 20E0      		ldi r18,lo8(512)
 2599 029e 32E0      		ldi r19,hi8(512)
 2600 02a0 281B      		sub r18,r24
 2601 02a2 390B      		sbc r19,r25
 2602 02a4 8301      		movw r16,r6
 2603               	.LVL251:
 2604 02a6 2615      		cp r18,r6
 2605 02a8 3705      		cpc r19,r7
 2606 02aa 00F4      		brsh .L134
 2607               	.LVL252:
 2608 02ac 8901      		movw r16,r18
 2609               	.L134:
 2610               	.LSM210:
 2611 02ae 2E81      		ldd r18,Y+6
 2612 02b0 3F81      		ldd r19,Y+7
 2613               	.LVL253:
 2614 02b2 3170      		andi r19,hi8(511)
 2615 02b4 225D      		subi r18,lo8(-(46))
 2616 02b6 3F4F      		sbci r19,hi8(-(46))
 2617 02b8 8881      		ld r24,Y
 2618 02ba 9981      		ldd r25,Y+1
 2619 02bc 820F      		add r24,r18
 2620 02be 931F      		adc r25,r19
 2621 02c0 B201      		movw r22,r4
 2622 02c2 A801      		movw r20,r16
 2623 02c4 0E94 0000 		call mem_cpy
 2624               	.LSM211:
 2625 02c8 E881      		ld r30,Y
 2626 02ca F981      		ldd r31,Y+1
 2627 02cc 31E0      		ldi r19,lo8(1)
 2628 02ce 3483      		std Z+4,r19
 2629               	.LVL254:
 2630               	.L130:
 2631               	.LSM212:
 2632 02d0 400E      		add r4,r16
 2633 02d2 511E      		adc r5,r17
 2634 02d4 C801      		movw r24,r16
 2635 02d6 A0E0      		ldi r26,lo8(0)
 2636 02d8 B0E0      		ldi r27,hi8(0)
 2637               	.LVL255:
 2638 02da 2E81      		ldd r18,Y+6
 2639 02dc 3F81      		ldd r19,Y+7
 2640 02de 4885      		ldd r20,Y+8
 2641 02e0 5985      		ldd r21,Y+9
 2642 02e2 280F      		add r18,r24
 2643 02e4 391F      		adc r19,r25
 2644 02e6 4A1F      		adc r20,r26
 2645 02e8 5B1F      		adc r21,r27
 2646 02ea 2E83      		std Y+6,r18
 2647 02ec 3F83      		std Y+7,r19
 2648 02ee 4887      		std Y+8,r20
 2649 02f0 5987      		std Y+9,r21
 2650 02f2 F101      		movw r30,r2
 2651 02f4 8081      		ld r24,Z
 2652 02f6 9181      		ldd r25,Z+1
 2653 02f8 800F      		add r24,r16
 2654 02fa 911F      		adc r25,r17
 2655 02fc 9183      		std Z+1,r25
 2656 02fe 8083      		st Z,r24
 2657 0300 601A      		sub r6,r16
 2658 0302 710A      		sbc r7,r17
 2659               	.LVL256:
 2660               	.L115:
 2661               	.LSM213:
 2662 0304 6114      		cp r6,__zero_reg__
 2663 0306 7104      		cpc r7,__zero_reg__
 2664 0308 01F0      		breq .+2
 2665 030a 00C0      		rjmp .L135
 2666               	.LVL257:
 2667               	.L121:
 2668               	.LSM214:
 2669 030c 2E81      		ldd r18,Y+6
 2670 030e 3F81      		ldd r19,Y+7
 2671 0310 4885      		ldd r20,Y+8
 2672 0312 5985      		ldd r21,Y+9
 2673 0314 8A85      		ldd r24,Y+10
 2674 0316 9B85      		ldd r25,Y+11
 2675 0318 AC85      		ldd r26,Y+12
 2676 031a BD85      		ldd r27,Y+13
 2677 031c 8217      		cp r24,r18
 2678 031e 9307      		cpc r25,r19
 2679 0320 A407      		cpc r26,r20
 2680 0322 B507      		cpc r27,r21
 2681 0324 00F4      		brsh .L136
 2682 0326 2A87      		std Y+10,r18
 2683 0328 3B87      		std Y+11,r19
 2684 032a 4C87      		std Y+12,r20
 2685 032c 5D87      		std Y+13,r21
 2686               	.L136:
 2687               	.LSM215:
 2688 032e 8C81      		ldd r24,Y+4
 2689 0330 8062      		ori r24,lo8(32)
 2690 0332 8C83      		std Y+4,r24
 2691               	.LVL258:
 2692               	.L111:
 2693               	.LSM216:
 2694 0334 882D      		mov r24,r8
 2695               	/* epilogue start */
 2696 0336 DF91      		pop r29
 2697 0338 CF91      		pop r28
 2698               	.LVL259:
 2699 033a 1F91      		pop r17
 2700               	.LVL260:
 2701 033c 0F91      		pop r16
 2702               	.LVL261:
 2703 033e FF90      		pop r15
 2704 0340 EF90      		pop r14
 2705 0342 DF90      		pop r13
 2706 0344 CF90      		pop r12
 2707               	.LVL262:
 2708 0346 BF90      		pop r11
 2709 0348 AF90      		pop r10
 2710               	.LVL263:
 2711 034a 9F90      		pop r9
 2712               	.LVL264:
 2713 034c 8F90      		pop r8
 2714               	.LVL265:
 2715 034e 7F90      		pop r7
 2716 0350 6F90      		pop r6
 2717               	.LVL266:
 2718 0352 5F90      		pop r5
 2719 0354 4F90      		pop r4
 2720               	.LVL267:
 2721 0356 3F90      		pop r3
 2722 0358 2F90      		pop r2
 2723               	.LVL268:
 2724 035a 0895      		ret
 2725               	.LFE151:
 2727               		.section	.text.dir_next,"ax",@progbits
 2729               	dir_next:
 2730               	.LFB140:
 2731               	.LSM217:
 2732               	.LVL269:
 2733 0000 8F92      		push r8
 2734 0002 9F92      		push r9
 2735 0004 AF92      		push r10
 2736 0006 BF92      		push r11
 2737 0008 CF92      		push r12
 2738 000a DF92      		push r13
 2739 000c EF92      		push r14
 2740 000e FF92      		push r15
 2741 0010 0F93      		push r16
 2742 0012 1F93      		push r17
 2743 0014 CF93      		push r28
 2744 0016 DF93      		push r29
 2745               	/* prologue: function */
 2746               	/* frame size = 0 */
 2747 0018 EC01      		movw r28,r24
 2748 001a 8B01      		movw r16,r22
 2749               	.LSM218:
 2750 001c AC80      		ldd r10,Y+4
 2751 001e BD80      		ldd r11,Y+5
 2752               	.LVL270:
 2753 0020 0894      		sec
 2754 0022 A11C      		adc r10,__zero_reg__
 2755 0024 B11C      		adc r11,__zero_reg__
 2756               	.LSM219:
 2757 0026 A114      		cp r10,__zero_reg__
 2758 0028 B104      		cpc r11,__zero_reg__
 2759 002a 01F4      		brne .+2
 2760 002c 00C0      		rjmp .L142
 2761               	.LVL271:
 2762 002e 8E85      		ldd r24,Y+14
 2763 0030 9F85      		ldd r25,Y+15
 2764 0032 A889      		ldd r26,Y+16
 2765 0034 B989      		ldd r27,Y+17
 2766 0036 0097      		sbiw r24,0
 2767 0038 A105      		cpc r26,__zero_reg__
 2768 003a B105      		cpc r27,__zero_reg__
 2769 003c 01F4      		brne .+2
 2770 003e 00C0      		rjmp .L142
 2771               	.LSM220:
 2772 0040 2FE0      		ldi r18,lo8(15)
 2773 0042 822E      		mov r8,r18
 2774 0044 912C      		mov r9,__zero_reg__
 2775 0046 8A20      		and r8,r10
 2776 0048 9B20      		and r9,r11
 2777 004a 8114      		cp r8,__zero_reg__
 2778 004c 9104      		cpc r9,__zero_reg__
 2779 004e 01F0      		breq .+2
 2780 0050 00C0      		rjmp .L143
 2781               	.LSM221:
 2782 0052 0196      		adiw r24,1
 2783 0054 A11D      		adc r26,__zero_reg__
 2784 0056 B11D      		adc r27,__zero_reg__
 2785 0058 8E87      		std Y+14,r24
 2786 005a 9F87      		std Y+15,r25
 2787 005c A88B      		std Y+16,r26
 2788 005e B98B      		std Y+17,r27
 2789               	.LSM222:
 2790 0060 4A85      		ldd r20,Y+10
 2791 0062 5B85      		ldd r21,Y+11
 2792 0064 6C85      		ldd r22,Y+12
 2793 0066 7D85      		ldd r23,Y+13
 2794 0068 E881      		ld r30,Y
 2795 006a F981      		ldd r31,Y+1
 2796 006c 4115      		cp r20,__zero_reg__
 2797 006e 5105      		cpc r21,__zero_reg__
 2798 0070 6105      		cpc r22,__zero_reg__
 2799 0072 7105      		cpc r23,__zero_reg__
 2800 0074 01F4      		brne .L144
 2801               	.LSM223:
 2802 0076 8085      		ldd r24,Z+8
 2803 0078 9185      		ldd r25,Z+9
 2804 007a A816      		cp r10,r24
 2805 007c B906      		cpc r11,r25
 2806 007e 00F4      		brsh .+2
 2807 0080 00C0      		rjmp .L143
 2808 0082 00C0      		rjmp .L142
 2809               	.L144:
 2810               	.LSM224:
 2811 0084 8281      		ldd r24,Z+2
 2812 0086 90E0      		ldi r25,lo8(0)
 2813 0088 0197      		sbiw r24,1
 2814 008a 9501      		movw r18,r10
 2815 008c A4E0      		ldi r26,4
 2816 008e 3695      	1:	lsr r19
 2817 0090 2795      		ror r18
 2818 0092 AA95      		dec r26
 2819 0094 01F4      		brne 1b
 2820 0096 8223      		and r24,r18
 2821 0098 9323      		and r25,r19
 2822 009a 892B      		or r24,r25
 2823 009c 01F0      		breq .+2
 2824 009e 00C0      		rjmp .L143
 2825               	.LSM225:
 2826 00a0 CF01      		movw r24,r30
 2827 00a2 0E94 0000 		call get_fat
 2828 00a6 6B01      		movw r12,r22
 2829 00a8 7C01      		movw r14,r24
 2830               	.LVL272:
 2831               	.LSM226:
 2832 00aa 82E0      		ldi r24,lo8(2)
 2833 00ac C816      		cp r12,r24
 2834 00ae D104      		cpc r13,__zero_reg__
 2835 00b0 E104      		cpc r14,__zero_reg__
 2836 00b2 F104      		cpc r15,__zero_reg__
 2837 00b4 00F4      		brsh .+2
 2838 00b6 00C0      		rjmp .L145
 2839               	.LSM227:
 2840 00b8 9FEF      		ldi r25,lo8(-1)
 2841 00ba C916      		cp r12,r25
 2842 00bc 9FEF      		ldi r25,hi8(-1)
 2843 00be D906      		cpc r13,r25
 2844 00c0 9FEF      		ldi r25,hlo8(-1)
 2845 00c2 E906      		cpc r14,r25
 2846 00c4 9FEF      		ldi r25,hhi8(-1)
 2847 00c6 F906      		cpc r15,r25
 2848 00c8 01F4      		brne .+2
 2849 00ca 00C0      		rjmp .L146
 2850               	.LSM228:
 2851 00cc E881      		ld r30,Y
 2852 00ce F981      		ldd r31,Y+1
 2853 00d0 8689      		ldd r24,Z+22
 2854 00d2 9789      		ldd r25,Z+23
 2855 00d4 A08D      		ldd r26,Z+24
 2856 00d6 B18D      		ldd r27,Z+25
 2857 00d8 C816      		cp r12,r24
 2858 00da D906      		cpc r13,r25
 2859 00dc EA06      		cpc r14,r26
 2860 00de FB06      		cpc r15,r27
 2861 00e0 00F4      		brsh .+2
 2862 00e2 00C0      		rjmp .L147
 2863               	.LBB4:
 2864               	.LSM229:
 2865 00e4 012B      		or r16,r17
 2866 00e6 01F4      		brne .+2
 2867 00e8 00C0      		rjmp .L142
 2868               	.LSM230:
 2869 00ea 4A85      		ldd r20,Y+10
 2870 00ec 5B85      		ldd r21,Y+11
 2871 00ee 6C85      		ldd r22,Y+12
 2872 00f0 7D85      		ldd r23,Y+13
 2873 00f2 CF01      		movw r24,r30
 2874 00f4 0E94 0000 		call create_chain
 2875 00f8 6B01      		movw r12,r22
 2876 00fa 7C01      		movw r14,r24
 2877               	.LSM231:
 2878 00fc 6115      		cp r22,__zero_reg__
 2879 00fe 7105      		cpc r23,__zero_reg__
 2880 0100 8105      		cpc r24,__zero_reg__
 2881 0102 9105      		cpc r25,__zero_reg__
 2882 0104 01F4      		brne .L148
 2883               	.LVL273:
 2884 0106 87E0      		ldi r24,lo8(7)
 2885 0108 00C0      		rjmp .L149
 2886               	.L148:
 2887               	.LSM232:
 2888 010a 6130      		cpi r22,lo8(1)
 2889 010c 7105      		cpc r23,__zero_reg__
 2890 010e 8105      		cpc r24,__zero_reg__
 2891 0110 9105      		cpc r25,__zero_reg__
 2892 0112 01F4      		brne .+2
 2893 0114 00C0      		rjmp .L145
 2894               	.LSM233:
 2895 0116 6F3F      		cpi r22,lo8(-1)
 2896 0118 FFEF      		ldi r31,hi8(-1)
 2897 011a 7F07      		cpc r23,r31
 2898 011c FFEF      		ldi r31,hlo8(-1)
 2899 011e 8F07      		cpc r24,r31
 2900 0120 FFEF      		ldi r31,hhi8(-1)
 2901 0122 9F07      		cpc r25,r31
 2902 0124 01F4      		brne .+2
 2903 0126 00C0      		rjmp .L146
 2904               	.LSM234:
 2905 0128 8881      		ld r24,Y
 2906 012a 9981      		ldd r25,Y+1
 2907 012c 40E0      		ldi r20,lo8(0)
 2908 012e 50E0      		ldi r21,hi8(0)
 2909 0130 60E0      		ldi r22,hlo8(0)
 2910 0132 70E0      		ldi r23,hhi8(0)
 2911 0134 0E94 0000 		call move_window
 2912               	.LVL274:
 2913 0138 8823      		tst r24
 2914 013a 01F0      		breq .+2
 2915 013c 00C0      		rjmp .L146
 2916               	.LSM235:
 2917 013e 8881      		ld r24,Y
 2918 0140 9981      		ldd r25,Y+1
 2919 0142 8E96      		adiw r24,46
 2920 0144 60E0      		ldi r22,lo8(0)
 2921 0146 70E0      		ldi r23,hi8(0)
 2922 0148 40E0      		ldi r20,lo8(512)
 2923 014a 52E0      		ldi r21,hi8(512)
 2924 014c 0E94 0000 		call mem_set
 2925               	.LSM236:
 2926 0150 0881      		ld r16,Y
 2927 0152 1981      		ldd r17,Y+1
 2928               	.LVL275:
 2929 0154 C801      		movw r24,r16
 2930 0156 B701      		movw r22,r14
 2931 0158 A601      		movw r20,r12
 2932 015a 0E94 0000 		call clust2sect
 2933 015e F801      		movw r30,r16
 2934 0160 62A7      		std Z+42,r22
 2935 0162 73A7      		std Z+43,r23
 2936 0164 84A7      		std Z+44,r24
 2937 0166 95A7      		std Z+45,r25
 2938 0168 00E0      		ldi r16,lo8(0)
 2939               	.LVL276:
 2940               	.LSM237:
 2941 016a 11E0      		ldi r17,lo8(1)
 2942 016c 00C0      		rjmp .L150
 2943               	.L151:
 2944 016e 1483      		std Z+4,r17
 2945               	.LSM238:
 2946 0170 8881      		ld r24,Y
 2947 0172 9981      		ldd r25,Y+1
 2948 0174 40E0      		ldi r20,lo8(0)
 2949 0176 50E0      		ldi r21,hi8(0)
 2950 0178 60E0      		ldi r22,hlo8(0)
 2951 017a 70E0      		ldi r23,hhi8(0)
 2952 017c 0E94 0000 		call move_window
 2953 0180 8823      		tst r24
 2954 0182 01F0      		breq .+2
 2955 0184 00C0      		rjmp .L146
 2956               	.LSM239:
 2957 0186 E881      		ld r30,Y
 2958 0188 F981      		ldd r31,Y+1
 2959 018a 82A5      		ldd r24,Z+42
 2960 018c 93A5      		ldd r25,Z+43
 2961 018e A4A5      		ldd r26,Z+44
 2962 0190 B5A5      		ldd r27,Z+45
 2963 0192 0196      		adiw r24,1
 2964 0194 A11D      		adc r26,__zero_reg__
 2965 0196 B11D      		adc r27,__zero_reg__
 2966 0198 82A7      		std Z+42,r24
 2967 019a 93A7      		std Z+43,r25
 2968 019c A4A7      		std Z+44,r26
 2969 019e B5A7      		std Z+45,r27
 2970               	.LSM240:
 2971 01a0 0F5F      		subi r16,lo8(-(1))
 2972               	.L150:
 2973 01a2 E881      		ld r30,Y
 2974 01a4 F981      		ldd r31,Y+1
 2975 01a6 8281      		ldd r24,Z+2
 2976 01a8 0817      		cp r16,r24
 2977 01aa 00F0      		brlo .L151
 2978               	.LSM241:
 2979 01ac 82A5      		ldd r24,Z+42
 2980 01ae 93A5      		ldd r25,Z+43
 2981 01b0 A4A5      		ldd r26,Z+44
 2982 01b2 B5A5      		ldd r27,Z+45
 2983 01b4 801B      		sub r24,r16
 2984 01b6 9109      		sbc r25,__zero_reg__
 2985 01b8 A109      		sbc r26,__zero_reg__
 2986 01ba B109      		sbc r27,__zero_reg__
 2987 01bc 82A7      		std Z+42,r24
 2988 01be 93A7      		std Z+43,r25
 2989 01c0 A4A7      		std Z+44,r26
 2990 01c2 B5A7      		std Z+45,r27
 2991               	.LVL277:
 2992               	.L147:
 2993               	.LBE4:
 2994               	.LSM242:
 2995 01c4 CA86      		std Y+10,r12
 2996 01c6 DB86      		std Y+11,r13
 2997 01c8 EC86      		std Y+12,r14
 2998 01ca FD86      		std Y+13,r15
 2999               	.LSM243:
 3000 01cc 8881      		ld r24,Y
 3001 01ce 9981      		ldd r25,Y+1
 3002 01d0 B701      		movw r22,r14
 3003 01d2 A601      		movw r20,r12
 3004 01d4 0E94 0000 		call clust2sect
 3005 01d8 6E87      		std Y+14,r22
 3006 01da 7F87      		std Y+15,r23
 3007 01dc 888B      		std Y+16,r24
 3008 01de 998B      		std Y+17,r25
 3009               	.LVL278:
 3010               	.L143:
 3011               	.LSM244:
 3012 01e0 BD82      		std Y+5,r11
 3013 01e2 AC82      		std Y+4,r10
 3014               	.LSM245:
 3015 01e4 85E0      		ldi r24,5
 3016 01e6 880C      	1:	lsl r8
 3017 01e8 991C      		rol r9
 3018 01ea 8A95      		dec r24
 3019 01ec 01F4      		brne 1b
 3020 01ee 8EE2      		ldi r24,lo8(46)
 3021 01f0 90E0      		ldi r25,hi8(46)
 3022 01f2 880E      		add r8,r24
 3023 01f4 991E      		adc r9,r25
 3024 01f6 8881      		ld r24,Y
 3025 01f8 9981      		ldd r25,Y+1
 3026 01fa 880D      		add r24,r8
 3027 01fc 991D      		adc r25,r9
 3028 01fe 9B8B      		std Y+19,r25
 3029 0200 8A8B      		std Y+18,r24
 3030 0202 80E0      		ldi r24,lo8(0)
 3031 0204 00C0      		rjmp .L149
 3032               	.LVL279:
 3033               	.L142:
 3034               	.LSM246:
 3035 0206 84E0      		ldi r24,lo8(4)
 3036 0208 00C0      		rjmp .L149
 3037               	.LVL280:
 3038               	.L145:
 3039 020a 82E0      		ldi r24,lo8(2)
 3040 020c 00C0      		rjmp .L149
 3041               	.LVL281:
 3042               	.L146:
 3043 020e 81E0      		ldi r24,lo8(1)
 3044               	.LVL282:
 3045               	.L149:
 3046               	/* epilogue start */
 3047               	.LSM247:
 3048 0210 DF91      		pop r29
 3049 0212 CF91      		pop r28
 3050               	.LVL283:
 3051 0214 1F91      		pop r17
 3052 0216 0F91      		pop r16
 3053               	.LVL284:
 3054 0218 FF90      		pop r15
 3055 021a EF90      		pop r14
 3056 021c DF90      		pop r13
 3057 021e CF90      		pop r12
 3058               	.LVL285:
 3059 0220 BF90      		pop r11
 3060 0222 AF90      		pop r10
 3061               	.LVL286:
 3062 0224 9F90      		pop r9
 3063 0226 8F90      		pop r8
 3064 0228 0895      		ret
 3065               	.LFE140:
 3067               		.section	.text.f_read,"ax",@progbits
 3068               	.global	f_read
 3070               	f_read:
 3071               	.LFB150:
 3072               	.LSM248:
 3073               	.LVL287:
 3074 0000 2F92      		push r2
 3075 0002 3F92      		push r3
 3076 0004 4F92      		push r4
 3077 0006 5F92      		push r5
 3078 0008 6F92      		push r6
 3079 000a 7F92      		push r7
 3080 000c 8F92      		push r8
 3081 000e 9F92      		push r9
 3082 0010 AF92      		push r10
 3083 0012 BF92      		push r11
 3084 0014 CF92      		push r12
 3085 0016 DF92      		push r13
 3086 0018 EF92      		push r14
 3087 001a FF92      		push r15
 3088 001c 0F93      		push r16
 3089 001e 1F93      		push r17
 3090 0020 CF93      		push r28
 3091 0022 DF93      		push r29
 3092               	/* prologue: function */
 3093               	/* frame size = 0 */
 3094 0024 EC01      		movw r28,r24
 3095 0026 162F      		mov r17,r22
 3096 0028 072F      		mov r16,r23
 3097               	.LVL288:
 3098 002a 3A01      		movw r6,r20
 3099 002c 1901      		movw r2,r18
 3100               	.LSM249:
 3101 002e F901      		movw r30,r18
 3102 0030 1182      		std Z+1,__zero_reg__
 3103 0032 1082      		st Z,__zero_reg__
 3104               	.LSM250:
 3105 0034 6A81      		ldd r22,Y+2
 3106 0036 7B81      		ldd r23,Y+3
 3107               	.LVL289:
 3108 0038 8881      		ld r24,Y
 3109 003a 9981      		ldd r25,Y+1
 3110               	.LVL290:
 3111 003c 0E94 0000 		call validate
 3112               	.LVL291:
 3113 0040 882E      		mov r8,r24
 3114               	.LVL292:
 3115               	.LSM251:
 3116 0042 8823      		tst r24
 3117 0044 01F0      		breq .+2
 3118 0046 00C0      		rjmp .L154
 3119               	.LVL293:
 3120               	.LSM252:
 3121 0048 8C81      		ldd r24,Y+4
 3122               	.LVL294:
 3123 004a 87FD      		sbrc r24,7
 3124 004c 00C0      		rjmp .L175
 3125               	.L155:
 3126               	.LSM253:
 3127 004e 80FD      		sbrc r24,0
 3128 0050 00C0      		rjmp .L156
 3129 0052 07E0      		ldi r16,lo8(7)
 3130 0054 802E      		mov r8,r16
 3131               	.LVL295:
 3132 0056 00C0      		rjmp .L154
 3133               	.LVL296:
 3134               	.L156:
 3135               	.LSM254:
 3136 0058 2A85      		ldd r18,Y+10
 3137 005a 3B85      		ldd r19,Y+11
 3138 005c 4C85      		ldd r20,Y+12
 3139 005e 5D85      		ldd r21,Y+13
 3140               	.LVL297:
 3141 0060 8E81      		ldd r24,Y+6
 3142 0062 9F81      		ldd r25,Y+7
 3143 0064 A885      		ldd r26,Y+8
 3144 0066 B985      		ldd r27,Y+9
 3145 0068 281B      		sub r18,r24
 3146 006a 390B      		sbc r19,r25
 3147 006c 4A0B      		sbc r20,r26
 3148 006e 5B0B      		sbc r21,r27
 3149               	.LSM255:
 3150 0070 C301      		movw r24,r6
 3151 0072 A0E0      		ldi r26,lo8(0)
 3152 0074 B0E0      		ldi r27,hi8(0)
 3153               	.LVL298:
 3154 0076 2817      		cp r18,r24
 3155 0078 3907      		cpc r19,r25
 3156 007a 4A07      		cpc r20,r26
 3157 007c 5B07      		cpc r21,r27
 3158 007e 00F4      		brsh .L157
 3159               	.LVL299:
 3160 0080 3901      		movw r6,r18
 3161               	.LVL300:
 3162               	.L157:
 3163               	.LSM256:
 3164 0082 812F      		mov r24,r17
 3165               	.LVL301:
 3166 0084 902F      		mov r25,r16
 3167               	.LVL302:
 3168 0086 9C01      		movw r18,r24
 3169               	.LVL303:
 3170 0088 2901      		movw r4,r18
 3171               	.LVL304:
 3172 008a 00C0      		rjmp .L158
 3173               	.LVL305:
 3174               	.L173:
 3175               	.LSM257:
 3176 008c 2E81      		ldd r18,Y+6
 3177 008e 3F81      		ldd r19,Y+7
 3178 0090 4885      		ldd r20,Y+8
 3179 0092 5985      		ldd r21,Y+9
 3180 0094 DA01      		movw r26,r20
 3181 0096 C901      		movw r24,r18
 3182 0098 9170      		andi r25,hi8(511)
 3183 009a A070      		andi r26,hlo8(511)
 3184 009c B070      		andi r27,hhi8(511)
 3185 009e 0097      		sbiw r24,0
 3186 00a0 A105      		cpc r26,__zero_reg__
 3187 00a2 B105      		cpc r27,__zero_reg__
 3188 00a4 01F0      		breq .+2
 3189 00a6 00C0      		rjmp .L159
 3190               	.LSM258:
 3191 00a8 E881      		ld r30,Y
 3192 00aa F981      		ldd r31,Y+1
 3193 00ac DA01      		movw r26,r20
 3194 00ae C901      		movw r24,r18
 3195 00b0 19E0      		ldi r17,9
 3196 00b2 B695      	1:	lsr r27
 3197 00b4 A795      		ror r26
 3198 00b6 9795      		ror r25
 3199 00b8 8795      		ror r24
 3200 00ba 1A95      		dec r17
 3201 00bc 01F4      		brne 1b
 3202               	.LVL306:
 3203 00be 9280      		ldd r9,Z+2
 3204 00c0 9A94      		dec r9
 3205 00c2 9822      		and r9,r24
 3206               	.LSM259:
 3207 00c4 01F4      		brne .L160
 3208               	.LSM260:
 3209 00c6 2115      		cp r18,__zero_reg__
 3210 00c8 3105      		cpc r19,__zero_reg__
 3211 00ca 4105      		cpc r20,__zero_reg__
 3212 00cc 5105      		cpc r21,__zero_reg__
 3213 00ce 01F4      		brne .L161
 3214 00d0 6E85      		ldd r22,Y+14
 3215 00d2 7F85      		ldd r23,Y+15
 3216 00d4 8889      		ldd r24,Y+16
 3217 00d6 9989      		ldd r25,Y+17
 3218               	.LVL307:
 3219 00d8 00C0      		rjmp .L162
 3220               	.LVL308:
 3221               	.L161:
 3222 00da 4A89      		ldd r20,Y+18
 3223 00dc 5B89      		ldd r21,Y+19
 3224 00de 6C89      		ldd r22,Y+20
 3225 00e0 7D89      		ldd r23,Y+21
 3226 00e2 CF01      		movw r24,r30
 3227 00e4 0E94 0000 		call get_fat
 3228               	.LVL309:
 3229               	.L162:
 3230               	.LSM261:
 3231 00e8 6230      		cpi r22,lo8(2)
 3232 00ea 7105      		cpc r23,__zero_reg__
 3233 00ec 8105      		cpc r24,__zero_reg__
 3234 00ee 9105      		cpc r25,__zero_reg__
 3235 00f0 00F4      		brsh .L163
 3236               	.LVL310:
 3237               	.L177:
 3238 00f2 8C81      		ldd r24,Y+4
 3239 00f4 8068      		ori r24,lo8(-128)
 3240 00f6 8C83      		std Y+4,r24
 3241               	.LVL311:
 3242               	.L175:
 3243 00f8 E2E0      		ldi r30,lo8(2)
 3244 00fa 8E2E      		mov r8,r30
 3245 00fc 00C0      		rjmp .L154
 3246               	.LVL312:
 3247               	.L163:
 3248               	.LSM262:
 3249 00fe 6F3F      		cpi r22,lo8(-1)
 3250 0100 FFEF      		ldi r31,hi8(-1)
 3251 0102 7F07      		cpc r23,r31
 3252 0104 FFEF      		ldi r31,hlo8(-1)
 3253 0106 8F07      		cpc r24,r31
 3254 0108 FFEF      		ldi r31,hhi8(-1)
 3255 010a 9F07      		cpc r25,r31
 3256 010c 01F4      		brne .+2
 3257 010e 00C0      		rjmp .L176
 3258               	.L164:
 3259               	.LSM263:
 3260 0110 6A8B      		std Y+18,r22
 3261 0112 7B8B      		std Y+19,r23
 3262 0114 8C8B      		std Y+20,r24
 3263 0116 9D8B      		std Y+21,r25
 3264               	.L160:
 3265               	.LSM264:
 3266 0118 0881      		ld r16,Y
 3267 011a 1981      		ldd r17,Y+1
 3268               	.LVL313:
 3269 011c 4A89      		ldd r20,Y+18
 3270 011e 5B89      		ldd r21,Y+19
 3271 0120 6C89      		ldd r22,Y+20
 3272 0122 7D89      		ldd r23,Y+21
 3273 0124 C801      		movw r24,r16
 3274 0126 0E94 0000 		call clust2sect
 3275               	.LVL314:
 3276               	.LSM265:
 3277 012a 6115      		cp r22,__zero_reg__
 3278 012c 7105      		cpc r23,__zero_reg__
 3279 012e 8105      		cpc r24,__zero_reg__
 3280 0130 9105      		cpc r25,__zero_reg__
 3281 0132 01F0      		breq .L177
 3282               	.LVL315:
 3283               	.L165:
 3284               	.LSM266:
 3285 0134 6B01      		movw r12,r22
 3286 0136 7C01      		movw r14,r24
 3287 0138 C90C      		add r12,r9
 3288 013a D11C      		adc r13,__zero_reg__
 3289 013c E11C      		adc r14,__zero_reg__
 3290 013e F11C      		adc r15,__zero_reg__
 3291               	.LVL316:
 3292               	.LSM267:
 3293 0140 5301      		movw r10,r6
 3294 0142 AB2C      		mov r10,r11
 3295 0144 BB24      		clr r11
 3296 0146 A694      		lsr r10
 3297               	.LSM268:
 3298 0148 A114      		cp r10,__zero_reg__
 3299 014a B104      		cpc r11,__zero_reg__
 3300 014c 01F4      		brne .+2
 3301 014e 00C0      		rjmp .L166
 3302               	.LSM269:
 3303 0150 F801      		movw r30,r16
 3304 0152 2281      		ldd r18,Z+2
 3305 0154 492D      		mov r20,r9
 3306 0156 50E0      		ldi r21,lo8(0)
 3307               	.LVL317:
 3308 0158 C501      		movw r24,r10
 3309 015a 840F      		add r24,r20
 3310 015c 951F      		adc r25,r21
 3311 015e 30E0      		ldi r19,lo8(0)
 3312 0160 2817      		cp r18,r24
 3313 0162 3907      		cpc r19,r25
 3314 0164 00F4      		brsh .L167
 3315               	.LVL318:
 3316               	.LSM270:
 3317 0166 5901      		movw r10,r18
 3318 0168 A41A      		sub r10,r20
 3319 016a B50A      		sbc r11,r21
 3320               	.L167:
 3321               	.LSM271:
 3322 016c F801      		movw r30,r16
 3323 016e 8181      		ldd r24,Z+1
 3324 0170 B201      		movw r22,r4
 3325 0172 A701      		movw r20,r14
 3326 0174 9601      		movw r18,r12
 3327 0176 0A2D      		mov r16,r10
 3328 0178 0E94 0000 		call disk_read
 3329               	.LVL319:
 3330 017c 8823      		tst r24
 3331 017e 01F4      		brne .L176
 3332               	.L168:
 3333               	.LSM272:
 3334 0180 E881      		ld r30,Y
 3335 0182 F981      		ldd r31,Y+1
 3336 0184 8481      		ldd r24,Z+4
 3337 0186 8823      		tst r24
 3338 0188 01F0      		breq .L169
 3339 018a 22A5      		ldd r18,Z+42
 3340 018c 33A5      		ldd r19,Z+43
 3341 018e 44A5      		ldd r20,Z+44
 3342 0190 55A5      		ldd r21,Z+45
 3343 0192 2C19      		sub r18,r12
 3344 0194 3D09      		sbc r19,r13
 3345 0196 4E09      		sbc r20,r14
 3346 0198 5F09      		sbc r21,r15
 3347 019a C501      		movw r24,r10
 3348 019c A0E0      		ldi r26,lo8(0)
 3349 019e B0E0      		ldi r27,hi8(0)
 3350               	.LVL320:
 3351 01a0 2817      		cp r18,r24
 3352 01a2 3907      		cpc r19,r25
 3353 01a4 4A07      		cpc r20,r26
 3354 01a6 5B07      		cpc r21,r27
 3355 01a8 00F4      		brsh .L169
 3356               	.LVL321:
 3357               	.LSM273:
 3358 01aa 69E0      		ldi r22,9
 3359 01ac 220F      	1:	lsl r18
 3360 01ae 331F      		rol r19
 3361 01b0 441F      		rol r20
 3362 01b2 551F      		rol r21
 3363 01b4 6A95      		dec r22
 3364 01b6 01F4      		brne 1b
 3365 01b8 C201      		movw r24,r4
 3366               	.LVL322:
 3367 01ba 820F      		add r24,r18
 3368 01bc 931F      		adc r25,r19
 3369 01be BE96      		adiw r30,46
 3370 01c0 BF01      		movw r22,r30
 3371 01c2 40E0      		ldi r20,lo8(512)
 3372 01c4 52E0      		ldi r21,hi8(512)
 3373 01c6 0E94 0000 		call mem_cpy
 3374               	.LVL323:
 3375               	.L169:
 3376               	.LSM274:
 3377 01ca 8501      		movw r16,r10
 3378               	.LVL324:
 3379 01cc 102F      		mov r17,r16
 3380 01ce 0027      		clr r16
 3381 01d0 110F      		lsl r17
 3382 01d2 00C0      		rjmp .L170
 3383               	.LVL325:
 3384               	.L166:
 3385               	.LSM275:
 3386 01d4 CE8A      		std Y+22,r12
 3387 01d6 DF8A      		std Y+23,r13
 3388 01d8 E88E      		std Y+24,r14
 3389 01da F98E      		std Y+25,r15
 3390               	.LVL326:
 3391               	.L159:
 3392               	.LSM276:
 3393 01dc EE80      		ldd r14,Y+6
 3394 01de FF80      		ldd r15,Y+7
 3395 01e0 0885      		ldd r16,Y+8
 3396 01e2 1985      		ldd r17,Y+9
 3397               	.LSM277:
 3398 01e4 4E89      		ldd r20,Y+22
 3399 01e6 5F89      		ldd r21,Y+23
 3400 01e8 688D      		ldd r22,Y+24
 3401 01ea 798D      		ldd r23,Y+25
 3402 01ec 8881      		ld r24,Y
 3403 01ee 9981      		ldd r25,Y+1
 3404 01f0 0E94 0000 		call move_window
 3405               	.LVL327:
 3406 01f4 8823      		tst r24
 3407 01f6 01F0      		breq .L171
 3408               	.LVL328:
 3409               	.L176:
 3410               	.LSM278:
 3411 01f8 8C81      		ldd r24,Y+4
 3412 01fa 8068      		ori r24,lo8(-128)
 3413 01fc 8C83      		std Y+4,r24
 3414 01fe 8824      		clr r8
 3415 0200 8394      		inc r8
 3416 0202 00C0      		rjmp .L154
 3417               	.LVL329:
 3418               	.L171:
 3419               	.LSM279:
 3420 0204 C701      		movw r24,r14
 3421 0206 9170      		andi r25,hi8(511)
 3422 0208 20E0      		ldi r18,lo8(512)
 3423 020a 32E0      		ldi r19,hi8(512)
 3424 020c 281B      		sub r18,r24
 3425 020e 390B      		sbc r19,r25
 3426 0210 8301      		movw r16,r6
 3427               	.LVL330:
 3428 0212 2615      		cp r18,r6
 3429 0214 3705      		cpc r19,r7
 3430 0216 00F4      		brsh .L172
 3431               	.LVL331:
 3432 0218 8901      		movw r16,r18
 3433               	.L172:
 3434               	.LSM280:
 3435 021a 8E81      		ldd r24,Y+6
 3436 021c 9F81      		ldd r25,Y+7
 3437 021e 9170      		andi r25,hi8(511)
 3438 0220 8E96      		adiw r24,46
 3439 0222 6881      		ld r22,Y
 3440 0224 7981      		ldd r23,Y+1
 3441 0226 680F      		add r22,r24
 3442 0228 791F      		adc r23,r25
 3443 022a C201      		movw r24,r4
 3444 022c A801      		movw r20,r16
 3445 022e 0E94 0000 		call mem_cpy
 3446               	.LVL332:
 3447               	.L170:
 3448               	.LSM281:
 3449 0232 400E      		add r4,r16
 3450 0234 511E      		adc r5,r17
 3451 0236 C801      		movw r24,r16
 3452 0238 A0E0      		ldi r26,lo8(0)
 3453 023a B0E0      		ldi r27,hi8(0)
 3454               	.LVL333:
 3455 023c 2E81      		ldd r18,Y+6
 3456 023e 3F81      		ldd r19,Y+7
 3457 0240 4885      		ldd r20,Y+8
 3458 0242 5985      		ldd r21,Y+9
 3459 0244 280F      		add r18,r24
 3460 0246 391F      		adc r19,r25
 3461 0248 4A1F      		adc r20,r26
 3462 024a 5B1F      		adc r21,r27
 3463 024c 2E83      		std Y+6,r18
 3464 024e 3F83      		std Y+7,r19
 3465 0250 4887      		std Y+8,r20
 3466 0252 5987      		std Y+9,r21
 3467 0254 F101      		movw r30,r2
 3468 0256 8081      		ld r24,Z
 3469 0258 9181      		ldd r25,Z+1
 3470 025a 800F      		add r24,r16
 3471 025c 911F      		adc r25,r17
 3472 025e 9183      		std Z+1,r25
 3473 0260 8083      		st Z,r24
 3474 0262 601A      		sub r6,r16
 3475 0264 710A      		sbc r7,r17
 3476               	.LVL334:
 3477               	.L158:
 3478               	.LSM282:
 3479 0266 6114      		cp r6,__zero_reg__
 3480 0268 7104      		cpc r7,__zero_reg__
 3481 026a 01F0      		breq .+2
 3482 026c 00C0      		rjmp .L173
 3483               	.LVL335:
 3484               	.L154:
 3485               	.LSM283:
 3486 026e 882D      		mov r24,r8
 3487               	/* epilogue start */
 3488 0270 DF91      		pop r29
 3489 0272 CF91      		pop r28
 3490               	.LVL336:
 3491 0274 1F91      		pop r17
 3492               	.LVL337:
 3493 0276 0F91      		pop r16
 3494               	.LVL338:
 3495 0278 FF90      		pop r15
 3496 027a EF90      		pop r14
 3497 027c DF90      		pop r13
 3498 027e CF90      		pop r12
 3499               	.LVL339:
 3500 0280 BF90      		pop r11
 3501 0282 AF90      		pop r10
 3502               	.LVL340:
 3503 0284 9F90      		pop r9
 3504               	.LVL341:
 3505 0286 8F90      		pop r8
 3506               	.LVL342:
 3507 0288 7F90      		pop r7
 3508 028a 6F90      		pop r6
 3509               	.LVL343:
 3510 028c 5F90      		pop r5
 3511 028e 4F90      		pop r4
 3512               	.LVL344:
 3513 0290 3F90      		pop r3
 3514 0292 2F90      		pop r2
 3515               	.LVL345:
 3516 0294 0895      		ret
 3517               	.LFE150:
 3519               		.section	.text.check_fs,"ax",@progbits
 3521               	check_fs:
 3522               	.LFB145:
 3523               	.LSM284:
 3524               	.LVL346:
 3525 0000 0F93      		push r16
 3526 0002 CF93      		push r28
 3527 0004 DF93      		push r29
 3528               	/* prologue: function */
 3529               	/* frame size = 0 */
 3530 0006 EC01      		movw r28,r24
 3531 0008 9A01      		movw r18,r20
 3532 000a AB01      		movw r20,r22
 3533               	.LSM285:
 3534 000c BC01      		movw r22,r24
 3535 000e 625D      		subi r22,lo8(-(46))
 3536 0010 7F4F      		sbci r23,hi8(-(46))
 3537 0012 8981      		ldd r24,Y+1
 3538               	.LVL347:
 3539 0014 01E0      		ldi r16,lo8(1)
 3540 0016 0E94 0000 		call disk_read
 3541               	.LVL348:
 3542 001a 8823      		tst r24
 3543 001c 01F0      		breq .L179
 3544 001e 23E0      		ldi r18,lo8(3)
 3545 0020 00C0      		rjmp .L180
 3546               	.L179:
 3547               	.LSM286:
 3548 0022 C45D      		subi r28,lo8(-(556))
 3549 0024 DD4F      		sbci r29,hi8(-(556))
 3550 0026 8881      		ld r24,Y
 3551 0028 9981      		ldd r25,Y+1
 3552 002a CC52      		subi r28,lo8(-(-556))
 3553 002c D240      		sbci r29,hi8(-(-556))
 3554 002e 8555      		subi r24,lo8(-21931)
 3555 0030 9A4A      		sbci r25,hi8(-21931)
 3556 0032 01F0      		breq .L181
 3557 0034 22E0      		ldi r18,lo8(2)
 3558 0036 00C0      		rjmp .L180
 3559               	.L181:
 3560               	.LSM287:
 3561 0038 CC59      		subi r28,lo8(-(100))
 3562 003a DF4F      		sbci r29,hi8(-(100))
 3563 003c 8881      		ld r24,Y
 3564 003e 9981      		ldd r25,Y+1
 3565 0040 AA81      		ldd r26,Y+2
 3566 0042 BB81      		ldd r27,Y+3
 3567 0044 C456      		subi r28,lo8(-(-100))
 3568 0046 D040      		sbci r29,hi8(-(-100))
 3569 0048 B070      		andi r27,hhi8(16777215)
 3570 004a 8654      		subi r24,lo8(5521734)
 3571 004c 9144      		sbci r25,hi8(5521734)
 3572 004e A445      		sbci r26,hlo8(5521734)
 3573 0050 B040      		sbci r27,hhi8(5521734)
 3574 0052 01F4      		brne .L182
 3575 0054 20E0      		ldi r18,lo8(0)
 3576 0056 00C0      		rjmp .L180
 3577               	.L182:
 3578 0058 20E0      		ldi r18,lo8(0)
 3579 005a C058      		subi r28,lo8(-(128))
 3580 005c DF4F      		sbci r29,hi8(-(128))
 3581 005e 8881      		ld r24,Y
 3582 0060 9981      		ldd r25,Y+1
 3583 0062 AA81      		ldd r26,Y+2
 3584 0064 BB81      		ldd r27,Y+3
 3585 0066 B070      		andi r27,hhi8(16777215)
 3586 0068 8654      		subi r24,lo8(5521734)
 3587 006a 9144      		sbci r25,hi8(5521734)
 3588 006c A445      		sbci r26,hlo8(5521734)
 3589 006e B040      		sbci r27,hhi8(5521734)
 3590 0070 01F0      		breq .L180
 3591 0072 21E0      		ldi r18,lo8(1)
 3592               	.L180:
 3593               	.LSM288:
 3594 0074 822F      		mov r24,r18
 3595               	/* epilogue start */
 3596 0076 DF91      		pop r29
 3597 0078 CF91      		pop r28
 3598               	.LVL349:
 3599 007a 0F91      		pop r16
 3600 007c 0895      		ret
 3601               	.LFE145:
 3603               		.section	.text.f_sync,"ax",@progbits
 3604               	.global	f_sync
 3606               	f_sync:
 3607               	.LFB152:
 3608               	.LSM289:
 3609               	.LVL350:
 3610 0000 0F93      		push r16
 3611 0002 1F93      		push r17
 3612 0004 CF93      		push r28
 3613 0006 DF93      		push r29
 3614               	/* prologue: function */
 3615               	/* frame size = 0 */
 3616 0008 EC01      		movw r28,r24
 3617               	.LSM290:
 3618 000a 6A81      		ldd r22,Y+2
 3619 000c 7B81      		ldd r23,Y+3
 3620 000e 8881      		ld r24,Y
 3621 0010 9981      		ldd r25,Y+1
 3622               	.LVL351:
 3623 0012 0E94 0000 		call validate
 3624 0016 982F      		mov r25,r24
 3625               	.LVL352:
 3626               	.LSM291:
 3627 0018 8823      		tst r24
 3628 001a 01F0      		breq .+2
 3629 001c 00C0      		rjmp .L186
 3630               	.LVL353:
 3631               	.LSM292:
 3632 001e 8C81      		ldd r24,Y+4
 3633               	.LVL354:
 3634 0020 85FF      		sbrs r24,5
 3635 0022 00C0      		rjmp .L186
 3636               	.LSM293:
 3637 0024 4A8D      		ldd r20,Y+26
 3638 0026 5B8D      		ldd r21,Y+27
 3639 0028 6C8D      		ldd r22,Y+28
 3640 002a 7D8D      		ldd r23,Y+29
 3641 002c 8881      		ld r24,Y
 3642 002e 9981      		ldd r25,Y+1
 3643 0030 0E94 0000 		call move_window
 3644               	.LVL355:
 3645 0034 982F      		mov r25,r24
 3646               	.LVL356:
 3647               	.LSM294:
 3648 0036 8823      		tst r24
 3649 0038 01F0      		breq .+2
 3650 003a 00C0      		rjmp .L186
 3651               	.LVL357:
 3652               	.LSM295:
 3653 003c 0E8D      		ldd r16,Y+30
 3654 003e 1F8D      		ldd r17,Y+31
 3655               	.LVL358:
 3656               	.LSM296:
 3657 0040 F801      		movw r30,r16
 3658 0042 8385      		ldd r24,Z+11
 3659               	.LVL359:
 3660 0044 8062      		ori r24,lo8(32)
 3661 0046 8387      		std Z+11,r24
 3662               	.LSM297:
 3663 0048 8A85      		ldd r24,Y+10
 3664 004a 9B85      		ldd r25,Y+11
 3665 004c AC85      		ldd r26,Y+12
 3666 004e BD85      		ldd r27,Y+13
 3667 0050 848F      		std Z+28,r24
 3668 0052 958F      		std Z+29,r25
 3669 0054 A68F      		std Z+30,r26
 3670 0056 B78F      		std Z+31,r27
 3671               	.LSM298:
 3672 0058 8E85      		ldd r24,Y+14
 3673 005a 9F85      		ldd r25,Y+15
 3674 005c 938F      		std Z+27,r25
 3675 005e 828F      		std Z+26,r24
 3676               	.LSM299:
 3677 0060 8E85      		ldd r24,Y+14
 3678 0062 9F85      		ldd r25,Y+15
 3679 0064 A889      		ldd r26,Y+16
 3680 0066 B989      		ldd r27,Y+17
 3681 0068 CD01      		movw r24,r26
 3682 006a AA27      		clr r26
 3683 006c BB27      		clr r27
 3684 006e 958B      		std Z+21,r25
 3685 0070 848B      		std Z+20,r24
 3686               	.LSM300:
 3687 0072 0E94 0000 		call get_fattime
 3688               	.LVL360:
 3689               	.LSM301:
 3690 0076 F801      		movw r30,r16
 3691 0078 668B      		std Z+22,r22
 3692 007a 778B      		std Z+23,r23
 3693 007c 808F      		std Z+24,r24
 3694 007e 918F      		std Z+25,r25
 3695               	.LVL361:
 3696               	.LSM302:
 3697 0080 8C81      		ldd r24,Y+4
 3698 0082 8F7D      		andi r24,lo8(-33)
 3699 0084 8C83      		std Y+4,r24
 3700               	.LSM303:
 3701 0086 E881      		ld r30,Y
 3702 0088 F981      		ldd r31,Y+1
 3703 008a 81E0      		ldi r24,lo8(1)
 3704 008c 8483      		std Z+4,r24
 3705               	.LSM304:
 3706 008e 0990      		ld __tmp_reg__,Y+
 3707 0090 D881      		ld r29,Y
 3708 0092 C02D      		mov r28,__tmp_reg__
 3709               	.LVL362:
 3710               	.LBB7:
 3711               	.LSM305:
 3712 0094 CE01      		movw r24,r28
 3713 0096 40E0      		ldi r20,lo8(0)
 3714 0098 50E0      		ldi r21,hi8(0)
 3715 009a 60E0      		ldi r22,hlo8(0)
 3716 009c 70E0      		ldi r23,hhi8(0)
 3717 009e 0E94 0000 		call move_window
 3718               	.LVL363:
 3719 00a2 982F      		mov r25,r24
 3720               	.LVL364:
 3721               	.LBB8:
 3722               	.LSM306:
 3723 00a4 8823      		tst r24
 3724 00a6 01F0      		breq .+2
 3725 00a8 00C0      		rjmp .L186
 3726               	.LVL365:
 3727               	.LSM307:
 3728 00aa 8881      		ld r24,Y
 3729               	.LVL366:
 3730 00ac 8330      		cpi r24,lo8(3)
 3731 00ae 01F0      		breq .+2
 3732 00b0 00C0      		rjmp .L187
 3733 00b2 8D81      		ldd r24,Y+5
 3734 00b4 8823      		tst r24
 3735 00b6 01F4      		brne .+2
 3736 00b8 00C0      		rjmp .L187
 3737               	.LSM308:
 3738 00ba 1AA6      		std Y+42,__zero_reg__
 3739 00bc 1BA6      		std Y+43,__zero_reg__
 3740 00be 1CA6      		std Y+44,__zero_reg__
 3741 00c0 1DA6      		std Y+45,__zero_reg__
 3742               	.LSM309:
 3743 00c2 8E01      		movw r16,r28
 3744               	.LVL367:
 3745 00c4 025D      		subi r16,lo8(-(46))
 3746 00c6 1F4F      		sbci r17,hi8(-(46))
 3747 00c8 C801      		movw r24,r16
 3748 00ca 60E0      		ldi r22,lo8(0)
 3749 00cc 70E0      		ldi r23,hi8(0)
 3750 00ce 40E0      		ldi r20,lo8(512)
 3751 00d0 52E0      		ldi r21,hi8(512)
 3752 00d2 0E94 0000 		call mem_set
 3753               	.LVL368:
 3754               	.LSM310:
 3755 00d6 C45D      		subi r28,lo8(-(556))
 3756 00d8 DD4F      		sbci r29,hi8(-(556))
 3757 00da 85E5      		ldi r24,lo8(-21931)
 3758 00dc 9AEA      		ldi r25,hi8(-21931)
 3759 00de 9983      		std Y+1,r25
 3760 00e0 8883      		st Y,r24
 3761 00e2 CC52      		subi r28,lo8(-(-556))
 3762 00e4 D240      		sbci r29,hi8(-(-556))
 3763               	.LSM311:
 3764 00e6 82E5      		ldi r24,lo8(1096897106)
 3765 00e8 92E5      		ldi r25,hi8(1096897106)
 3766 00ea A1E6      		ldi r26,hlo8(1096897106)
 3767 00ec B1E4      		ldi r27,hhi8(1096897106)
 3768 00ee 8EA7      		std Y+46,r24
 3769 00f0 9FA7      		std Y+47,r25
 3770 00f2 A8AB      		std Y+48,r26
 3771 00f4 B9AB      		std Y+49,r27
 3772               	.LSM312:
 3773 00f6 CE5E      		subi r28,lo8(-(530))
 3774 00f8 DD4F      		sbci r29,hi8(-(530))
 3775 00fa 82E7      		ldi r24,lo8(1631679090)
 3776 00fc 92E7      		ldi r25,hi8(1631679090)
 3777 00fe A1E4      		ldi r26,hlo8(1631679090)
 3778 0100 B1E6      		ldi r27,hhi8(1631679090)
 3779 0102 8883      		st Y,r24
 3780 0104 9983      		std Y+1,r25
 3781 0106 AA83      		std Y+2,r26
 3782 0108 BB83      		std Y+3,r27
 3783 010a C251      		subi r28,lo8(-(-530))
 3784 010c D240      		sbci r29,hi8(-(-530))
 3785               	.LSM313:
 3786 010e 8E85      		ldd r24,Y+14
 3787 0110 9F85      		ldd r25,Y+15
 3788 0112 A889      		ldd r26,Y+16
 3789 0114 B989      		ldd r27,Y+17
 3790 0116 CA5E      		subi r28,lo8(-(534))
 3791 0118 DD4F      		sbci r29,hi8(-(534))
 3792 011a 8883      		st Y,r24
 3793 011c 9983      		std Y+1,r25
 3794 011e AA83      		std Y+2,r26
 3795 0120 BB83      		std Y+3,r27
 3796 0122 C651      		subi r28,lo8(-(-534))
 3797 0124 D240      		sbci r29,hi8(-(-534))
 3798               	.LSM314:
 3799 0126 8A85      		ldd r24,Y+10
 3800 0128 9B85      		ldd r25,Y+11
 3801 012a AC85      		ldd r26,Y+12
 3802 012c BD85      		ldd r27,Y+13
 3803 012e C65E      		subi r28,lo8(-(538))
 3804 0130 DD4F      		sbci r29,hi8(-(538))
 3805 0132 8883      		st Y,r24
 3806 0134 9983      		std Y+1,r25
 3807 0136 AA83      		std Y+2,r26
 3808 0138 BB83      		std Y+3,r27
 3809 013a CA51      		subi r28,lo8(-(-538))
 3810 013c D240      		sbci r29,hi8(-(-538))
 3811               	.LSM315:
 3812 013e 2A89      		ldd r18,Y+18
 3813 0140 3B89      		ldd r19,Y+19
 3814 0142 4C89      		ldd r20,Y+20
 3815 0144 5D89      		ldd r21,Y+21
 3816 0146 8981      		ldd r24,Y+1
 3817 0148 B801      		movw r22,r16
 3818 014a 01E0      		ldi r16,lo8(1)
 3819 014c 0E94 0000 		call disk_write
 3820               	.LSM316:
 3821 0150 1D82      		std Y+5,__zero_reg__
 3822               	.LVL369:
 3823               	.L187:
 3824               	.LBE8:
 3825               	.LSM317:
 3826 0152 8981      		ldd r24,Y+1
 3827 0154 60E0      		ldi r22,lo8(0)
 3828 0156 40E0      		ldi r20,lo8(0)
 3829 0158 50E0      		ldi r21,hi8(0)
 3830 015a 0E94 0000 		call disk_ioctl
 3831               	.LVL370:
 3832 015e 8111      		cpse r24,__zero_reg__
 3833 0160 81E0      		ldi r24,lo8(1)
 3834               	.L188:
 3835 0162 982F      		mov r25,r24
 3836               	.LVL371:
 3837               	.L186:
 3838               	.LBE7:
 3839               	.LSM318:
 3840 0164 892F      		mov r24,r25
 3841               	/* epilogue start */
 3842 0166 DF91      		pop r29
 3843 0168 CF91      		pop r28
 3844               	.LVL372:
 3845 016a 1F91      		pop r17
 3846 016c 0F91      		pop r16
 3847               	.LVL373:
 3848 016e 0895      		ret
 3849               	.LFE152:
 3851               		.section	.text.f_close,"ax",@progbits
 3852               	.global	f_close
 3854               	f_close:
 3855               	.LFB153:
 3856               	.LSM319:
 3857               	.LVL374:
 3858 0000 CF93      		push r28
 3859 0002 DF93      		push r29
 3860               	/* prologue: function */
 3861               	/* frame size = 0 */
 3862 0004 EC01      		movw r28,r24
 3863               	.LSM320:
 3864 0006 0E94 0000 		call f_sync
 3865               	.LVL375:
 3866               	.LSM321:
 3867 000a 8823      		tst r24
 3868               	.LVL376:
 3869 000c 01F4      		brne .L191
 3870 000e 1982      		std Y+1,__zero_reg__
 3871 0010 1882      		st Y,__zero_reg__
 3872               	.L191:
 3873               	.LVL377:
 3874               	/* epilogue start */
 3875               	.LSM322:
 3876 0012 DF91      		pop r29
 3877 0014 CF91      		pop r28
 3878               	.LVL378:
 3879 0016 0895      		ret
 3880               	.LFE153:
 3882               		.data
 3883               	.LC0:
 3884 0000 222A 2B2C 		.string	"\"*+,:<=>?[]|\177"
 3884      3A3C 3D3E 
 3884      3F5B 5D7C 
 3884      7F00 
 3885               		.section	.text.f_open,"ax",@progbits
 3886               	.global	f_open
 3888               	f_open:
 3889               	.LFB149:
 3890               	.LSM323:
 3891               	.LVL379:
 3892 0000 2F92      		push r2
 3893 0002 3F92      		push r3
 3894 0004 4F92      		push r4
 3895 0006 5F92      		push r5
 3896 0008 6F92      		push r6
 3897 000a 7F92      		push r7
 3898 000c 8F92      		push r8
 3899 000e 9F92      		push r9
 3900 0010 AF92      		push r10
 3901 0012 BF92      		push r11
 3902 0014 CF92      		push r12
 3903 0016 DF92      		push r13
 3904 0018 EF92      		push r14
 3905 001a FF92      		push r15
 3906 001c 0F93      		push r16
 3907 001e 1F93      		push r17
 3908 0020 DF93      		push r29
 3909 0022 CF93      		push r28
 3910 0024 CDB7      		in r28,__SP_L__
 3911 0026 DEB7      		in r29,__SP_H__
 3912 0028 E597      		sbiw r28,53
 3913 002a 0FB6      		in __tmp_reg__,__SREG__
 3914 002c F894      		cli
 3915 002e DEBF      		out __SP_H__,r29
 3916 0030 0FBE      		out __SREG__,__tmp_reg__
 3917 0032 CDBF      		out __SP_L__,r28
 3918               	/* prologue: function */
 3919               	/* frame size = 53 */
 3920 0034 9BAB      		std Y+51,r25
 3921 0036 8AAB      		std Y+50,r24
 3922 0038 7DAB      		std Y+53,r23
 3923 003a 6CAB      		std Y+52,r22
 3924               	.LSM324:
 3925 003c DC01      		movw r26,r24
 3926 003e 1D92      		st X+,__zero_reg__
 3927 0040 1C92      		st X,__zero_reg__
 3928               	.LSM325:
 3929 0042 4F71      		andi r20,lo8(31)
 3930 0044 4BA7      		std Y+43,r20
 3931               	.LBB26:
 3932               	.LBB27:
 3933               	.LSM326:
 3934 0046 ECA9      		ldd r30,Y+52
 3935 0048 FDA9      		ldd r31,Y+53
 3936 004a 8081      		ld r24,Z
 3937               	.LVL380:
 3938 004c 282F      		mov r18,r24
 3939               	.LVL381:
 3940 004e 30E0      		ldi r19,lo8(0)
 3941               	.LVL382:
 3942 0050 2053      		subi r18,lo8(-(-48))
 3943 0052 3040      		sbci r19,hi8(-(-48))
 3944               	.LVL383:
 3945               	.LSM327:
 3946 0054 2A30      		cpi r18,10
 3947 0056 3105      		cpc r19,__zero_reg__
 3948 0058 00F4      		brsh .L194
 3949               	.LVL384:
 3950 005a 8181      		ldd r24,Z+1
 3951 005c 8A33      		cpi r24,lo8(58)
 3952 005e 01F4      		brne .L194
 3953               	.LSM328:
 3954 0060 3296      		adiw r30,2
 3955 0062 FDAB      		std Y+53,r31
 3956 0064 ECAB      		std Y+52,r30
 3957               	.LVL385:
 3958               	.LSM329:
 3959 0066 232B      		or r18,r19
 3960 0068 01F0      		breq .L194
 3961 006a 5BE0      		ldi r21,lo8(11)
 3962 006c B52E      		mov r11,r21
 3963               	.LVL386:
 3964 006e 00C0      		rjmp .L195
 3965               	.LVL387:
 3966               	.L194:
 3967               	.LSM330:
 3968 0070 E090 0000 		lds r14,FatFs
 3969 0074 F090 0000 		lds r15,(FatFs)+1
 3970               	.LVL388:
 3971 0078 FE86      		std Y+14,r15
 3972 007a ED86      		std Y+13,r14
 3973               	.LSM331:
 3974 007c E114      		cp r14,__zero_reg__
 3975 007e F104      		cpc r15,__zero_reg__
 3976 0080 01F4      		brne .L196
 3977 0082 4CE0      		ldi r20,lo8(12)
 3978 0084 B42E      		mov r11,r20
 3979               	.LVL389:
 3980 0086 00C0      		rjmp .L195
 3981               	.LVL390:
 3982               	.L196:
 3983               	.LBE27:
 3984               	.LBE26:
 3985               	.LSM332:
 3986 0088 1BA5      		ldd r17,Y+43
 3987 008a 1E7F      		andi r17,lo8(-2)
 3988               	.LBB34:
 3989               	.LBB28:
 3990               	.LSM333:
 3991 008c D701      		movw r26,r14
 3992 008e 8C91      		ld r24,X
 3993 0090 8823      		tst r24
 3994 0092 01F0      		breq .L197
 3995               	.LBE28:
 3996               	.LSM334:
 3997 0094 1196      		adiw r26,1
 3998 0096 8C91      		ld r24,X
 3999 0098 0E94 0000 		call disk_status
 4000               	.LVL391:
 4001               	.LBB29:
 4002               	.LSM335:
 4003 009c 80FD      		sbrc r24,0
 4004 009e 00C0      		rjmp .L197
 4005               	.LSM336:
 4006 00a0 1123      		tst r17
 4007 00a2 01F4      		brne .+2
 4008 00a4 00C0      		rjmp .L198
 4009 00a6 82FD      		sbrc r24,2
 4010 00a8 00C0      		rjmp .L199
 4011 00aa 00C0      		rjmp .L198
 4012               	.LVL392:
 4013               	.L197:
 4014               	.LSM337:
 4015 00ac F701      		movw r30,r14
 4016 00ae 1082      		st Z,__zero_reg__
 4017               	.LSM338:
 4018 00b0 1182      		std Z+1,__zero_reg__
 4019               	.LBE29:
 4020               	.LSM339:
 4021 00b2 80E0      		ldi r24,lo8(0)
 4022 00b4 0E94 0000 		call disk_initialize
 4023               	.LVL393:
 4024               	.LSM340:
 4025 00b8 80FF      		sbrs r24,0
 4026 00ba 00C0      		rjmp .L200
 4027 00bc 33E0      		ldi r19,lo8(3)
 4028 00be B32E      		mov r11,r19
 4029               	.LVL394:
 4030 00c0 00C0      		rjmp .L195
 4031               	.LVL395:
 4032               	.L200:
 4033               	.LBB30:
 4034               	.LSM341:
 4035 00c2 1123      		tst r17
 4036 00c4 01F0      		breq .L201
 4037 00c6 82FD      		sbrc r24,2
 4038 00c8 00C0      		rjmp .L199
 4039               	.L201:
 4040               	.LBE30:
 4041               	.LSM342:
 4042 00ca C701      		movw r24,r14
 4043 00cc 40E0      		ldi r20,lo8(0)
 4044 00ce 50E0      		ldi r21,hi8(0)
 4045 00d0 60E0      		ldi r22,hlo8(0)
 4046 00d2 70E0      		ldi r23,hhi8(0)
 4047 00d4 0E94 0000 		call check_fs
 4048               	.LBB31:
 4049               	.LSM343:
 4050 00d8 8130      		cpi r24,lo8(1)
 4051               	.LVL396:
 4052 00da 01F0      		breq .L202
 4053 00dc 1CA6      		std Y+44,__zero_reg__
 4054 00de 1DA6      		std Y+45,__zero_reg__
 4055 00e0 1EA6      		std Y+46,__zero_reg__
 4056 00e2 1FA6      		std Y+47,__zero_reg__
 4057               	.LVL397:
 4058 00e4 00C0      		rjmp .L203
 4059               	.LVL398:
 4060               	.L202:
 4061               	.LSM344:
 4062 00e6 F701      		movw r30,r14
 4063               	.LVL399:
 4064 00e8 E451      		subi r30,lo8(-(492))
 4065 00ea FE4F      		sbci r31,hi8(-(492))
 4066               	.LSM345:
 4067 00ec 8481      		ldd r24,Z+4
 4068               	.LVL400:
 4069 00ee 8823      		tst r24
 4070 00f0 01F4      		brne .+2
 4071 00f2 00C0      		rjmp .L204
 4072               	.LSM346:
 4073 00f4 2085      		ldd r18,Z+8
 4074 00f6 3185      		ldd r19,Z+9
 4075 00f8 4285      		ldd r20,Z+10
 4076 00fa 5385      		ldd r21,Z+11
 4077 00fc 2CA7      		std Y+44,r18
 4078 00fe 3DA7      		std Y+45,r19
 4079 0100 4EA7      		std Y+46,r20
 4080 0102 5FA7      		std Y+47,r21
 4081               	.LVL401:
 4082               	.LBE31:
 4083               	.LSM347:
 4084 0104 C701      		movw r24,r14
 4085 0106 BA01      		movw r22,r20
 4086 0108 A901      		movw r20,r18
 4087 010a 0E94 0000 		call check_fs
 4088               	.LVL402:
 4089               	.L203:
 4090               	.LBB32:
 4091               	.LSM348:
 4092 010e 8330      		cpi r24,lo8(3)
 4093 0110 01F4      		brne .L205
 4094 0112 BB24      		clr r11
 4095 0114 B394      		inc r11
 4096               	.LVL403:
 4097 0116 00C0      		rjmp .L195
 4098               	.LVL404:
 4099               	.L205:
 4100               	.LSM349:
 4101 0118 8823      		tst r24
 4102 011a 01F0      		breq .+2
 4103 011c 00C0      		rjmp .L204
 4104               	.LSM350:
 4105 011e D701      		movw r26,r14
 4106 0120 D996      		adiw r26,57
 4107 0122 8D91      		ld r24,X+
 4108 0124 9C91      		ld r25,X
 4109 0126 DA97      		sbiw r26,57+1
 4110               	.LVL405:
 4111 0128 8050      		subi r24,lo8(512)
 4112 012a 9240      		sbci r25,hi8(512)
 4113 012c 01F0      		breq .+2
 4114 012e 00C0      		rjmp .L204
 4115               	.LSM351:
 4116 0130 E4E4      		ldi r30,lo8(68)
 4117 0132 F0E0      		ldi r31,hi8(68)
 4118 0134 EE0E      		add r14,r30
 4119 0136 FF1E      		adc r15,r31
 4120 0138 D701      		movw r26,r14
 4121 013a 8D91      		ld r24,X+
 4122 013c 9C91      		ld r25,X
 4123 013e ECEB      		ldi r30,lo8(-68)
 4124 0140 FFEF      		ldi r31,hi8(-68)
 4125 0142 EE0E      		add r14,r30
 4126 0144 FF1E      		adc r15,r31
 4127 0146 3C01      		movw r6,r24
 4128               	.LVL406:
 4129 0148 8824      		clr r8
 4130 014a 9924      		clr r9
 4131               	.LVL407:
 4132               	.LSM352:
 4133 014c 6114      		cp r6,__zero_reg__
 4134 014e 7104      		cpc r7,__zero_reg__
 4135 0150 8104      		cpc r8,__zero_reg__
 4136 0152 9104      		cpc r9,__zero_reg__
 4137 0154 01F4      		brne .L206
 4138 0156 22E5      		ldi r18,lo8(82)
 4139 0158 30E0      		ldi r19,hi8(82)
 4140 015a E20E      		add r14,r18
 4141 015c F31E      		adc r15,r19
 4142 015e D701      		movw r26,r14
 4143 0160 6D90      		ld r6,X+
 4144 0162 7D90      		ld r7,X+
 4145 0164 8D90      		ld r8,X+
 4146 0166 9C90      		ld r9,X
 4147               	.LVL408:
 4148 0168 EEEA      		ldi r30,lo8(-82)
 4149 016a FFEF      		ldi r31,hi8(-82)
 4150 016c EE0E      		add r14,r30
 4151 016e FF1E      		adc r15,r31
 4152               	.L206:
 4153               	.LSM353:
 4154 0170 D701      		movw r26,r14
 4155 0172 5A96      		adiw r26,26
 4156 0174 6D92      		st X+,r6
 4157 0176 7D92      		st X+,r7
 4158 0178 8D92      		st X+,r8
 4159 017a 9C92      		st X,r9
 4160 017c 5D97      		sbiw r26,26+3
 4161               	.LSM354:
 4162 017e DE96      		adiw r26,62
 4163 0180 4C91      		ld r20,X
 4164 0182 DE97      		sbiw r26,62
 4165               	.LVL409:
 4166 0184 1396      		adiw r26,3
 4167 0186 4C93      		st X,r20
 4168 0188 1397      		sbiw r26,3
 4169               	.LSM355:
 4170 018a 842F      		mov r24,r20
 4171 018c 8150      		subi r24,lo8(-(-1))
 4172 018e 8230      		cpi r24,lo8(2)
 4173 0190 00F0      		brlo .+2
 4174 0192 00C0      		rjmp .L204
 4175               	.LSM356:
 4176 0194 DB96      		adiw r26,59
 4177 0196 2C91      		ld r18,X
 4178 0198 DB97      		sbiw r26,59
 4179               	.LVL410:
 4180 019a 1296      		adiw r26,2
 4181 019c 2C93      		st X,r18
 4182               	.LSM357:
 4183 019e 2223      		tst r18
 4184 01a0 01F4      		brne .+2
 4185 01a2 00C0      		rjmp .L204
 4186 01a4 30E0      		ldi r19,lo8(0)
 4187 01a6 C901      		movw r24,r18
 4188               	.LVL411:
 4189 01a8 0197      		sbiw r24,1
 4190 01aa 8223      		and r24,r18
 4191 01ac 9323      		and r25,r19
 4192 01ae 892B      		or r24,r25
 4193 01b0 01F0      		breq .+2
 4194 01b2 00C0      		rjmp .L204
 4195               	.LSM358:
 4196 01b4 EFE3      		ldi r30,lo8(63)
 4197 01b6 F0E0      		ldi r31,hi8(63)
 4198 01b8 EE0E      		add r14,r30
 4199 01ba FF1E      		adc r15,r31
 4200 01bc D701      		movw r26,r14
 4201 01be 0D91      		ld r16,X+
 4202 01c0 1C91      		ld r17,X
 4203 01c2 E1EC      		ldi r30,lo8(-63)
 4204 01c4 FFEF      		ldi r31,hi8(-63)
 4205 01c6 EE0E      		add r14,r30
 4206 01c8 FF1E      		adc r15,r31
 4207 01ca D701      		movw r26,r14
 4208 01cc 1996      		adiw r26,8+1
 4209 01ce 1C93      		st X,r17
 4210 01d0 0E93      		st -X,r16
 4211 01d2 1897      		sbiw r26,8
 4212               	.LSM359:
 4213 01d4 C801      		movw r24,r16
 4214 01d6 8F70      		andi r24,lo8(15)
 4215 01d8 9070      		andi r25,hi8(15)
 4216 01da 892B      		or r24,r25
 4217 01dc 01F0      		breq .+2
 4218 01de 00C0      		rjmp .L204
 4219               	.LSM360:
 4220 01e0 E1E4      		ldi r30,lo8(65)
 4221 01e2 F0E0      		ldi r31,hi8(65)
 4222 01e4 EE0E      		add r14,r30
 4223 01e6 FF1E      		adc r15,r31
 4224 01e8 D701      		movw r26,r14
 4225 01ea 8D91      		ld r24,X+
 4226 01ec 9C91      		ld r25,X
 4227 01ee EFEB      		ldi r30,lo8(-65)
 4228 01f0 FFEF      		ldi r31,hi8(-65)
 4229 01f2 EE0E      		add r14,r30
 4230 01f4 FF1E      		adc r15,r31
 4231 01f6 5C01      		movw r10,r24
 4232               	.LVL412:
 4233 01f8 CC24      		clr r12
 4234 01fa DD24      		clr r13
 4235               	.LVL413:
 4236               	.LSM361:
 4237 01fc A114      		cp r10,__zero_reg__
 4238 01fe B104      		cpc r11,__zero_reg__
 4239 0200 C104      		cpc r12,__zero_reg__
 4240 0202 D104      		cpc r13,__zero_reg__
 4241 0204 01F4      		brne .L207
 4242 0206 2EE4      		ldi r18,lo8(78)
 4243 0208 30E0      		ldi r19,hi8(78)
 4244 020a E20E      		add r14,r18
 4245 020c F31E      		adc r15,r19
 4246 020e D701      		movw r26,r14
 4247 0210 AD90      		ld r10,X+
 4248 0212 BD90      		ld r11,X+
 4249 0214 CD90      		ld r12,X+
 4250 0216 DC90      		ld r13,X
 4251               	.LVL414:
 4252 0218 E2EB      		ldi r30,lo8(-78)
 4253 021a FFEF      		ldi r31,hi8(-78)
 4254 021c EE0E      		add r14,r30
 4255 021e FF1E      		adc r15,r31
 4256               	.L207:
 4257               	.LSM362:
 4258 0220 D701      		movw r26,r14
 4259 0222 DC96      		adiw r26,60
 4260 0224 4D90      		ld r4,X+
 4261 0226 5C90      		ld r5,X
 4262 0228 DD97      		sbiw r26,60+1
 4263               	.LVL415:
 4264               	.LSM363:
 4265 022a 4114      		cp r4,__zero_reg__
 4266 022c 5104      		cpc r5,__zero_reg__
 4267 022e 01F4      		brne .+2
 4268 0230 00C0      		rjmp .L204
 4269               	.LSM364:
 4270 0232 242F      		mov r18,r20
 4271               	.LVL416:
 4272 0234 30E0      		ldi r19,lo8(0)
 4273               	.LVL417:
 4274 0236 40E0      		ldi r20,lo8(0)
 4275 0238 50E0      		ldi r21,hi8(0)
 4276               	.LVL418:
 4277 023a C401      		movw r24,r8
 4278 023c B301      		movw r22,r6
 4279 023e 0E94 0000 		call __mulsi3
 4280               	.LVL419:
 4281 0242 6BA3      		std Y+35,r22
 4282 0244 7CA3      		std Y+36,r23
 4283 0246 8DA3      		std Y+37,r24
 4284 0248 9EA3      		std Y+38,r25
 4285               	.LVL420:
 4286               	.LSM365:
 4287 024a 1201      		movw r2,r4
 4288 024c 4424      		clr r4
 4289 024e 5524      		clr r5
 4290               	.LVL421:
 4291 0250 24E0      		ldi r18,4
 4292 0252 1695      	1:	lsr r17
 4293 0254 0795      		ror r16
 4294 0256 2A95      		dec r18
 4295 0258 01F4      		brne 1b
 4296 025a 3801      		movw r6,r16
 4297               	.LVL422:
 4298 025c 8824      		clr r8
 4299 025e 9924      		clr r9
 4300               	.LVL423:
 4301 0260 620C      		add r6,r2
 4302 0262 731C      		adc r7,r3
 4303 0264 841C      		adc r8,r4
 4304 0266 951C      		adc r9,r5
 4305               	.LVL424:
 4306 0268 660E      		add r6,r22
 4307 026a 771E      		adc r7,r23
 4308 026c 881E      		adc r8,r24
 4309 026e 991E      		adc r9,r25
 4310               	.LSM366:
 4311 0270 A614      		cp r10,r6
 4312 0272 B704      		cpc r11,r7
 4313 0274 C804      		cpc r12,r8
 4314 0276 D904      		cpc r13,r9
 4315 0278 00F4      		brsh .+2
 4316 027a 00C0      		rjmp .L204
 4317               	.LSM367:
 4318 027c A618      		sub r10,r6
 4319 027e B708      		sbc r11,r7
 4320 0280 C808      		sbc r12,r8
 4321 0282 D908      		sbc r13,r9
 4322               	.LVL425:
 4323 0284 F701      		movw r30,r14
 4324 0286 2281      		ldd r18,Z+2
 4325 0288 30E0      		ldi r19,lo8(0)
 4326               	.LVL426:
 4327 028a 40E0      		ldi r20,lo8(0)
 4328 028c 50E0      		ldi r21,hi8(0)
 4329               	.LVL427:
 4330 028e C601      		movw r24,r12
 4331 0290 B501      		movw r22,r10
 4332 0292 0E94 0000 		call __udivmodsi4
 4333 0296 C901      		movw r24,r18
 4334 0298 DA01      		movw r26,r20
 4335               	.LSM368:
 4336 029a 0097      		sbiw r24,0
 4337 029c A105      		cpc r26,__zero_reg__
 4338 029e B105      		cpc r27,__zero_reg__
 4339               	.LVL428:
 4340 02a0 01F4      		brne .+2
 4341 02a2 00C0      		rjmp .L204
 4342               	.LSM369:
 4343 02a4 863F      		cpi r24,lo8(4086)
 4344 02a6 FFE0      		ldi r31,hi8(4086)
 4345 02a8 9F07      		cpc r25,r31
 4346 02aa F0E0      		ldi r31,hlo8(4086)
 4347 02ac AF07      		cpc r26,r31
 4348 02ae F0E0      		ldi r31,hhi8(4086)
 4349 02b0 BF07      		cpc r27,r31
 4350 02b2 00F4      		brsh .L208
 4351 02b4 11E0      		ldi r17,lo8(1)
 4352               	.LVL429:
 4353 02b6 00C0      		rjmp .L209
 4354               	.LVL430:
 4355               	.L208:
 4356               	.LSM370:
 4357 02b8 863F      		cpi r24,lo8(65526)
 4358 02ba 2FEF      		ldi r18,hi8(65526)
 4359 02bc 9207      		cpc r25,r18
 4360 02be 20E0      		ldi r18,hlo8(65526)
 4361 02c0 A207      		cpc r26,r18
 4362 02c2 20E0      		ldi r18,hhi8(65526)
 4363 02c4 B207      		cpc r27,r18
 4364 02c6 00F0      		brlo .L210
 4365 02c8 13E0      		ldi r17,lo8(3)
 4366               	.LVL431:
 4367 02ca 00C0      		rjmp .L209
 4368               	.LVL432:
 4369               	.L210:
 4370 02cc 12E0      		ldi r17,lo8(2)
 4371               	.LVL433:
 4372               	.L209:
 4373               	.LSM371:
 4374 02ce 02E0      		ldi r16,lo8(2)
 4375 02d0 A02E      		mov r10,r16
 4376 02d2 B12C      		mov r11,__zero_reg__
 4377 02d4 C12C      		mov r12,__zero_reg__
 4378 02d6 D12C      		mov r13,__zero_reg__
 4379               	.LVL434:
 4380 02d8 A80E      		add r10,r24
 4381 02da B91E      		adc r11,r25
 4382 02dc CA1E      		adc r12,r26
 4383 02de DB1E      		adc r13,r27
 4384 02e0 D701      		movw r26,r14
 4385 02e2 5696      		adiw r26,22
 4386 02e4 AD92      		st X+,r10
 4387 02e6 BD92      		st X+,r11
 4388 02e8 CD92      		st X+,r12
 4389 02ea DC92      		st X,r13
 4390 02ec 5997      		sbiw r26,22+3
 4391               	.LSM372:
 4392 02ee 2CA5      		ldd r18,Y+44
 4393 02f0 3DA5      		ldd r19,Y+45
 4394 02f2 4EA5      		ldd r20,Y+46
 4395 02f4 5FA5      		ldd r21,Y+47
 4396 02f6 620E      		add r6,r18
 4397 02f8 731E      		adc r7,r19
 4398 02fa 841E      		adc r8,r20
 4399 02fc 951E      		adc r9,r21
 4400 02fe 9696      		adiw r26,38
 4401 0300 6D92      		st X+,r6
 4402 0302 7D92      		st X+,r7
 4403 0304 8D92      		st X+,r8
 4404 0306 9C92      		st X,r9
 4405 0308 9997      		sbiw r26,38+3
 4406               	.LSM373:
 4407 030a DA01      		movw r26,r20
 4408 030c C901      		movw r24,r18
 4409               	.LVL435:
 4410 030e 820D      		add r24,r2
 4411 0310 931D      		adc r25,r3
 4412 0312 A41D      		adc r26,r4
 4413 0314 B51D      		adc r27,r5
 4414 0316 F701      		movw r30,r14
 4415 0318 868F      		std Z+30,r24
 4416 031a 978F      		std Z+31,r25
 4417 031c A0A3      		std Z+32,r26
 4418 031e B1A3      		std Z+33,r27
 4419 0320 2085      		ldd r18,Z+8
 4420 0322 3185      		ldd r19,Z+9
 4421               	.LSM374:
 4422 0324 1330      		cpi r17,lo8(3)
 4423 0326 01F4      		brne .L211
 4424               	.LSM375:
 4425 0328 232B      		or r18,r19
 4426 032a 01F0      		breq .+2
 4427 032c 00C0      		rjmp .L204
 4428               	.LSM376:
 4429 032e 2AE5      		ldi r18,lo8(90)
 4430 0330 30E0      		ldi r19,hi8(90)
 4431 0332 E20E      		add r14,r18
 4432 0334 F31E      		adc r15,r19
 4433 0336 F701      		movw r30,r14
 4434 0338 8081      		ld r24,Z
 4435 033a 9181      		ldd r25,Z+1
 4436 033c A281      		ldd r26,Z+2
 4437 033e B381      		ldd r27,Z+3
 4438 0340 26EA      		ldi r18,lo8(-90)
 4439 0342 3FEF      		ldi r19,hi8(-90)
 4440 0344 E20E      		add r14,r18
 4441 0346 F31E      		adc r15,r19
 4442 0348 F701      		movw r30,r14
 4443 034a 82A3      		std Z+34,r24
 4444 034c 93A3      		std Z+35,r25
 4445 034e A4A3      		std Z+36,r26
 4446 0350 B5A3      		std Z+37,r27
 4447               	.LSM377:
 4448 0352 A601      		movw r20,r12
 4449 0354 9501      		movw r18,r10
 4450               	.LVL436:
 4451 0356 F2E0      		ldi r31,2
 4452 0358 220F      	1:	lsl r18
 4453 035a 331F      		rol r19
 4454 035c 441F      		rol r20
 4455 035e 551F      		rol r21
 4456 0360 FA95      		dec r31
 4457 0362 01F4      		brne 1b
 4458 0364 00C0      		rjmp .L212
 4459               	.LVL437:
 4460               	.L211:
 4461               	.LSM378:
 4462 0366 232B      		or r18,r19
 4463 0368 01F4      		brne .+2
 4464 036a 00C0      		rjmp .L204
 4465               	.LSM379:
 4466 036c 2BA1      		ldd r18,Y+35
 4467 036e 3CA1      		ldd r19,Y+36
 4468 0370 4DA1      		ldd r20,Y+37
 4469 0372 5EA1      		ldd r21,Y+38
 4470 0374 820F      		add r24,r18
 4471 0376 931F      		adc r25,r19
 4472 0378 A41F      		adc r26,r20
 4473 037a B51F      		adc r27,r21
 4474 037c F701      		movw r30,r14
 4475 037e 82A3      		std Z+34,r24
 4476 0380 93A3      		std Z+35,r25
 4477 0382 A4A3      		std Z+36,r26
 4478 0384 B5A3      		std Z+37,r27
 4479 0386 D601      		movw r26,r12
 4480 0388 C501      		movw r24,r10
 4481 038a 880F      		lsl r24
 4482 038c 991F      		rol r25
 4483 038e AA1F      		rol r26
 4484 0390 BB1F      		rol r27
 4485               	.LSM380:
 4486 0392 1230      		cpi r17,lo8(2)
 4487 0394 01F4      		brne .L213
 4488 0396 9C01      		movw r18,r24
 4489 0398 AD01      		movw r20,r26
 4490               	.LVL438:
 4491 039a 00C0      		rjmp .L212
 4492               	.LVL439:
 4493               	.L213:
 4494 039c 9C01      		movw r18,r24
 4495 039e AD01      		movw r20,r26
 4496               	.LVL440:
 4497 03a0 2A0D      		add r18,r10
 4498 03a2 3B1D      		adc r19,r11
 4499 03a4 4C1D      		adc r20,r12
 4500 03a6 5D1D      		adc r21,r13
 4501 03a8 5695      		lsr r21
 4502 03aa 4795      		ror r20
 4503 03ac 3795      		ror r19
 4504 03ae 2795      		ror r18
 4505 03b0 81E0      		ldi r24,lo8(1)
 4506 03b2 90E0      		ldi r25,hi8(1)
 4507 03b4 A0E0      		ldi r26,hlo8(1)
 4508 03b6 B0E0      		ldi r27,hhi8(1)
 4509 03b8 A822      		and r10,r24
 4510 03ba B922      		and r11,r25
 4511 03bc CA22      		and r12,r26
 4512 03be DB22      		and r13,r27
 4513 03c0 2A0D      		add r18,r10
 4514 03c2 3B1D      		adc r19,r11
 4515 03c4 4C1D      		adc r20,r12
 4516 03c6 5D1D      		adc r21,r13
 4517               	.L212:
 4518               	.LSM381:
 4519 03c8 2150      		subi r18,lo8(-(511))
 4520 03ca 3E4F      		sbci r19,hi8(-(511))
 4521 03cc 4F4F      		sbci r20,hlo8(-(511))
 4522 03ce 5F4F      		sbci r21,hhi8(-(511))
 4523 03d0 69E0      		ldi r22,9
 4524 03d2 5695      	1:	lsr r21
 4525 03d4 4795      		ror r20
 4526 03d6 3795      		ror r19
 4527 03d8 2795      		ror r18
 4528 03da 6A95      		dec r22
 4529 03dc 01F4      		brne 1b
 4530 03de F701      		movw r30,r14
 4531 03e0 828D      		ldd r24,Z+26
 4532 03e2 938D      		ldd r25,Z+27
 4533 03e4 A48D      		ldd r26,Z+28
 4534 03e6 B58D      		ldd r27,Z+29
 4535 03e8 8217      		cp r24,r18
 4536 03ea 9307      		cpc r25,r19
 4537 03ec A407      		cpc r26,r20
 4538 03ee B507      		cpc r27,r21
 4539 03f0 00F4      		brsh .+2
 4540 03f2 00C0      		rjmp .L204
 4541               	.LSM382:
 4542 03f4 8FEF      		ldi r24,lo8(-1)
 4543 03f6 9FEF      		ldi r25,hi8(-1)
 4544 03f8 AFEF      		ldi r26,hlo8(-1)
 4545 03fa BFEF      		ldi r27,hhi8(-1)
 4546 03fc 8687      		std Z+14,r24
 4547 03fe 9787      		std Z+15,r25
 4548 0400 A08B      		std Z+16,r26
 4549 0402 B18B      		std Z+17,r27
 4550               	.LSM383:
 4551 0404 D701      		movw r26,r14
 4552 0406 1A96      		adiw r26,10
 4553 0408 1D92      		st X+,__zero_reg__
 4554 040a 1D92      		st X+,__zero_reg__
 4555 040c 1D92      		st X+,__zero_reg__
 4556 040e 1C92      		st X,__zero_reg__
 4557 0410 1D97      		sbiw r26,10+3
 4558               	.LSM384:
 4559 0412 1330      		cpi r17,lo8(3)
 4560 0414 01F0      		breq .+2
 4561 0416 00C0      		rjmp .L214
 4562               	.LSM385:
 4563 0418 1596      		adiw r26,5
 4564 041a 1C92      		st X,__zero_reg__
 4565               	.LSM386:
 4566 041c EEE5      		ldi r30,lo8(94)
 4567 041e F0E0      		ldi r31,hi8(94)
 4568 0420 EE0E      		add r14,r30
 4569 0422 FF1E      		adc r15,r31
 4570 0424 D701      		movw r26,r14
 4571 0426 2D91      		ld r18,X+
 4572 0428 3C91      		ld r19,X
 4573               	.LVL441:
 4574 042a E2EA      		ldi r30,lo8(-94)
 4575 042c FFEF      		ldi r31,hi8(-94)
 4576 042e EE0E      		add r14,r30
 4577 0430 FF1E      		adc r15,r31
 4578 0432 40E0      		ldi r20,lo8(0)
 4579 0434 50E0      		ldi r21,hi8(0)
 4580 0436 8CA5      		ldd r24,Y+44
 4581 0438 9DA5      		ldd r25,Y+45
 4582 043a AEA5      		ldd r26,Y+46
 4583 043c BFA5      		ldd r27,Y+47
 4584 043e 280F      		add r18,r24
 4585 0440 391F      		adc r19,r25
 4586 0442 4A1F      		adc r20,r26
 4587 0444 5B1F      		adc r21,r27
 4588 0446 D701      		movw r26,r14
 4589 0448 5296      		adiw r26,18
 4590 044a 2D93      		st X+,r18
 4591 044c 3D93      		st X+,r19
 4592 044e 4D93      		st X+,r20
 4593 0450 5C93      		st X,r21
 4594 0452 5597      		sbiw r26,18+3
 4595               	.LBE32:
 4596               	.LSM387:
 4597 0454 B701      		movw r22,r14
 4598 0456 625D      		subi r22,lo8(-(46))
 4599 0458 7F4F      		sbci r23,hi8(-(46))
 4600 045a 1196      		adiw r26,1
 4601 045c 8C91      		ld r24,X
 4602 045e 01E0      		ldi r16,lo8(1)
 4603 0460 0E94 0000 		call disk_read
 4604               	.LBB33:
 4605 0464 8823      		tst r24
 4606 0466 01F0      		breq .+2
 4607 0468 00C0      		rjmp .L214
 4608 046a ECE2      		ldi r30,lo8(556)
 4609 046c F2E0      		ldi r31,hi8(556)
 4610 046e EE0E      		add r14,r30
 4611 0470 FF1E      		adc r15,r31
 4612 0472 D701      		movw r26,r14
 4613 0474 8D91      		ld r24,X+
 4614 0476 9C91      		ld r25,X
 4615 0478 E4ED      		ldi r30,lo8(-556)
 4616 047a FDEF      		ldi r31,hi8(-556)
 4617 047c EE0E      		add r14,r30
 4618 047e FF1E      		adc r15,r31
 4619 0480 8555      		subi r24,lo8(-21931)
 4620 0482 9A4A      		sbci r25,hi8(-21931)
 4621 0484 01F0      		breq .+2
 4622 0486 00C0      		rjmp .L214
 4623 0488 F701      		movw r30,r14
 4624 048a 86A5      		ldd r24,Z+46
 4625 048c 97A5      		ldd r25,Z+47
 4626 048e A0A9      		ldd r26,Z+48
 4627 0490 B1A9      		ldd r27,Z+49
 4628 0492 8255      		subi r24,lo8(1096897106)
 4629 0494 9245      		sbci r25,hi8(1096897106)
 4630 0496 A146      		sbci r26,hlo8(1096897106)
 4631 0498 B144      		sbci r27,hhi8(1096897106)
 4632 049a 01F4      		brne .L214
 4633 049c 22E1      		ldi r18,lo8(530)
 4634 049e 32E0      		ldi r19,hi8(530)
 4635 04a0 E20E      		add r14,r18
 4636 04a2 F31E      		adc r15,r19
 4637 04a4 F701      		movw r30,r14
 4638 04a6 8081      		ld r24,Z
 4639 04a8 9181      		ldd r25,Z+1
 4640 04aa A281      		ldd r26,Z+2
 4641 04ac B381      		ldd r27,Z+3
 4642 04ae 2EEE      		ldi r18,lo8(-530)
 4643 04b0 3DEF      		ldi r19,hi8(-530)
 4644 04b2 E20E      		add r14,r18
 4645 04b4 F31E      		adc r15,r19
 4646 04b6 8257      		subi r24,lo8(1631679090)
 4647 04b8 9247      		sbci r25,hi8(1631679090)
 4648 04ba A144      		sbci r26,hlo8(1631679090)
 4649 04bc B146      		sbci r27,hhi8(1631679090)
 4650 04be 01F4      		brne .L214
 4651               	.LSM388:
 4652 04c0 4AE1      		ldi r20,lo8(538)
 4653 04c2 52E0      		ldi r21,hi8(538)
 4654 04c4 E40E      		add r14,r20
 4655 04c6 F51E      		adc r15,r21
 4656 04c8 F701      		movw r30,r14
 4657 04ca 8081      		ld r24,Z
 4658 04cc 9181      		ldd r25,Z+1
 4659 04ce A281      		ldd r26,Z+2
 4660 04d0 B381      		ldd r27,Z+3
 4661 04d2 26EE      		ldi r18,lo8(-538)
 4662 04d4 3DEF      		ldi r19,hi8(-538)
 4663 04d6 E20E      		add r14,r18
 4664 04d8 F31E      		adc r15,r19
 4665 04da F701      		movw r30,r14
 4666 04dc 8287      		std Z+10,r24
 4667 04de 9387      		std Z+11,r25
 4668 04e0 A487      		std Z+12,r26
 4669 04e2 B587      		std Z+13,r27
 4670               	.LSM389:
 4671 04e4 26E1      		ldi r18,lo8(534)
 4672 04e6 32E0      		ldi r19,hi8(534)
 4673 04e8 E20E      		add r14,r18
 4674 04ea F31E      		adc r15,r19
 4675 04ec F701      		movw r30,r14
 4676 04ee 8081      		ld r24,Z
 4677 04f0 9181      		ldd r25,Z+1
 4678 04f2 A281      		ldd r26,Z+2
 4679 04f4 B381      		ldd r27,Z+3
 4680 04f6 2AEE      		ldi r18,lo8(-534)
 4681 04f8 3DEF      		ldi r19,hi8(-534)
 4682 04fa E20E      		add r14,r18
 4683 04fc F31E      		adc r15,r19
 4684 04fe F701      		movw r30,r14
 4685 0500 8687      		std Z+14,r24
 4686 0502 9787      		std Z+15,r25
 4687 0504 A08B      		std Z+16,r26
 4688 0506 B18B      		std Z+17,r27
 4689               	.LVL442:
 4690               	.L214:
 4691               	.LSM390:
 4692 0508 D701      		movw r26,r14
 4693 050a 1C93      		st X,r17
 4694               	.LSM391:
 4695 050c 8091 0000 		lds r24,Fsid
 4696 0510 9091 0000 		lds r25,(Fsid)+1
 4697 0514 0196      		adiw r24,1
 4698 0516 9093 0000 		sts (Fsid)+1,r25
 4699 051a 8093 0000 		sts Fsid,r24
 4700 051e 1796      		adiw r26,6+1
 4701 0520 9C93      		st X,r25
 4702 0522 8E93      		st -X,r24
 4703 0524 1697      		sbiw r26,6
 4704               	.LSM392:
 4705 0526 F701      		movw r30,r14
 4706 0528 12A6      		std Z+42,__zero_reg__
 4707 052a 13A6      		std Z+43,__zero_reg__
 4708 052c 14A6      		std Z+44,__zero_reg__
 4709 052e 15A6      		std Z+45,__zero_reg__
 4710               	.LSM393:
 4711 0530 1482      		std Z+4,__zero_reg__
 4712 0532 00C0      		rjmp .L198
 4713               	.LVL443:
 4714               	.L199:
 4715 0534 5AE0      		ldi r21,lo8(10)
 4716 0536 B52E      		mov r11,r21
 4717               	.LVL444:
 4718 0538 00C0      		rjmp .L195
 4719               	.LVL445:
 4720               	.L198:
 4721 053a BB24      		clr r11
 4722               	.LVL446:
 4723 053c 00C0      		rjmp .L195
 4724               	.LVL447:
 4725               	.L204:
 4726 053e 4DE0      		ldi r20,lo8(13)
 4727 0540 B42E      		mov r11,r20
 4728               	.LVL448:
 4729               	.L195:
 4730               	.LBE33:
 4731               	.LBE34:
 4732               	.LSM394:
 4733 0542 CE01      		movw r24,r28
 4734               	.LVL449:
 4735 0544 0196      		adiw r24,1
 4736 0546 9AA3      		std Y+34,r25
 4737 0548 89A3      		std Y+33,r24
 4738               	.LSM395:
 4739 054a BB20      		tst r11
 4740 054c 01F0      		breq .+2
 4741 054e 00C0      		rjmp .L215
 4742               	.LBB35:
 4743               	.LBB36:
 4744               	.LSM396:
 4745 0550 ACA9      		ldd r26,Y+52
 4746 0552 BDA9      		ldd r27,Y+53
 4747 0554 8C91      		ld r24,X
 4748 0556 8F32      		cpi r24,lo8(47)
 4749 0558 01F0      		breq .L216
 4750 055a 8C35      		cpi r24,lo8(92)
 4751 055c 01F4      		brne .L217
 4752               	.L216:
 4753               	.LSM397:
 4754 055e ECA9      		ldd r30,Y+52
 4755 0560 FDA9      		ldd r31,Y+53
 4756               	.LVL450:
 4757 0562 3196      		adiw r30,1
 4758 0564 FDAB      		std Y+53,r31
 4759 0566 ECAB      		std Y+52,r30
 4760               	.LVL451:
 4761               	.L217:
 4762               	.LSM398:
 4763 0568 1B8A      		std Y+19,__zero_reg__
 4764 056a 1C8A      		std Y+20,__zero_reg__
 4765 056c 1D8A      		std Y+21,__zero_reg__
 4766 056e 1E8A      		std Y+22,__zero_reg__
 4767               	.LSM399:
 4768 0570 ACA9      		ldd r26,Y+52
 4769 0572 BDA9      		ldd r27,Y+53
 4770 0574 8C91      		ld r24,X
 4771 0576 8032      		cpi r24,lo8(32)
 4772 0578 00F4      		brsh .L218
 4773               	.LBE36:
 4774               	.LSM400:
 4775 057a CE01      		movw r24,r28
 4776 057c 0D96      		adiw r24,13
 4777 057e 60E0      		ldi r22,lo8(0)
 4778 0580 70E0      		ldi r23,hi8(0)
 4779 0582 0E94 0000 		call dir_sdi
 4780               	.LVL452:
 4781 0586 B82E      		mov r11,r24
 4782               	.LBB51:
 4783               	.LSM401:
 4784 0588 18A2      		std Y+32,__zero_reg__
 4785 058a 1F8E      		std Y+31,__zero_reg__
 4786 058c 00C0      		rjmp .L215
 4787               	.LVL453:
 4788               	.L218:
 4789               	.LBB37:
 4790               	.LBB39:
 4791               	.LSM402:
 4792 058e 35E0      		ldi r19,lo8(5)
 4793 0590 932E      		mov r9,r19
 4794               	.LVL454:
 4795               	.LBE39:
 4796               	.LBE37:
 4797               	.LBB43:
 4798               	.LSM403:
 4799 0592 2DE0      		ldi r18,lo8(13)
 4800 0594 A22E      		mov r10,r18
 4801 0596 B12C      		mov r11,__zero_reg__
 4802               	.LVL455:
 4803 0598 AC0E      		add r10,r28
 4804 059a BD1E      		adc r11,r29
 4805               	.LVL456:
 4806               	.L274:
 4807               	.LBE43:
 4808               	.LBB48:
 4809               	.LBB38:
 4810               	.LSM404:
 4811 059c 09A1      		ldd r16,Y+33
 4812 059e 1AA1      		ldd r17,Y+34
 4813               	.LSM405:
 4814 05a0 C801      		movw r24,r16
 4815 05a2 60E2      		ldi r22,lo8(32)
 4816 05a4 70E0      		ldi r23,hi8(32)
 4817 05a6 4BE0      		ldi r20,lo8(11)
 4818 05a8 50E0      		ldi r21,hi8(11)
 4819 05aa 0E94 0000 		call mem_set
 4820               	.LVL457:
 4821 05ae A0E0      		ldi r26,lo8(0)
 4822               	.LVL458:
 4823 05b0 40E0      		ldi r20,lo8(0)
 4824 05b2 50E0      		ldi r21,hi8(0)
 4825               	.LVL459:
 4826 05b4 EE24      		clr r14
 4827 05b6 FF24      		clr r15
 4828               	.LVL460:
 4829 05b8 98E0      		ldi r25,lo8(8)
 4830 05ba C92E      		mov r12,r25
 4831 05bc D12C      		mov r13,__zero_reg__
 4832               	.LVL461:
 4833               	.L273:
 4834               	.LSM406:
 4835 05be ECA9      		ldd r30,Y+52
 4836 05c0 FDA9      		ldd r31,Y+53
 4837 05c2 EE0D      		add r30,r14
 4838 05c4 FF1D      		adc r31,r15
 4839 05c6 2081      		ld r18,Z
 4840 05c8 0894      		sec
 4841 05ca E11C      		adc r14,__zero_reg__
 4842 05cc F11C      		adc r15,__zero_reg__
 4843               	.LSM407:
 4844 05ce 2132      		cpi r18,lo8(33)
 4845 05d0 00F4      		brsh .+2
 4846 05d2 00C0      		rjmp .L219
 4847 05d4 2F32      		cpi r18,lo8(47)
 4848 05d6 01F4      		brne .+2
 4849 05d8 00C0      		rjmp .L220
 4850 05da 2C35      		cpi r18,lo8(92)
 4851 05dc 01F4      		brne .+2
 4852 05de 00C0      		rjmp .L220
 4853               	.LSM408:
 4854 05e0 2E32      		cpi r18,lo8(46)
 4855 05e2 01F0      		breq .L221
 4856 05e4 4C15      		cp r20,r12
 4857 05e6 5D05      		cpc r21,r13
 4858 05e8 04F0      		brlt .L222
 4859               	.L221:
 4860               	.LSM409:
 4861 05ea B8E0      		ldi r27,lo8(8)
 4862 05ec CB16      		cp r12,r27
 4863 05ee D104      		cpc r13,__zero_reg__
 4864 05f0 01F0      		breq .+2
 4865 05f2 00C0      		rjmp .L223
 4866 05f4 2E32      		cpi r18,lo8(46)
 4867 05f6 01F0      		breq .+2
 4868 05f8 00C0      		rjmp .L223
 4869               	.LSM410:
 4870 05fa AA0F      		lsl r26
 4871 05fc AA0F      		lsl r26
 4872 05fe 48E0      		ldi r20,lo8(8)
 4873 0600 50E0      		ldi r21,hi8(8)
 4874 0602 8BE0      		ldi r24,lo8(11)
 4875 0604 C82E      		mov r12,r24
 4876 0606 D12C      		mov r13,__zero_reg__
 4877 0608 00C0      		rjmp .L273
 4878               	.L222:
 4879               	.LSM411:
 4880 060a 27FD      		sbrc r18,7
 4881               	.LSM412:
 4882 060c A360      		ori r26,lo8(3)
 4883               	.L225:
 4884               	.LSM413:
 4885 060e 822F      		mov r24,r18
 4886 0610 8158      		subi r24,lo8(-(127))
 4887 0612 8F31      		cpi r24,lo8(31)
 4888 0614 00F0      		brlo .L226
 4889 0616 8F55      		subi r24,lo8(-(-95))
 4890 0618 8D31      		cpi r24,lo8(29)
 4891 061a 00F4      		brsh .L227
 4892               	.L226:
 4893               	.LSM414:
 4894 061c ECA9      		ldd r30,Y+52
 4895 061e FDA9      		ldd r31,Y+53
 4896 0620 EE0D      		add r30,r14
 4897 0622 FF1D      		adc r31,r15
 4898 0624 3081      		ld r19,Z
 4899               	.LSM415:
 4900 0626 832F      		mov r24,r19
 4901 0628 8054      		subi r24,lo8(-(-64))
 4902 062a 8F33      		cpi r24,lo8(63)
 4903 062c 00F0      		brlo .L228
 4904 062e 8054      		subi r24,lo8(-(-64))
 4905 0630 8D37      		cpi r24,lo8(125)
 4906 0632 00F0      		brlo .+2
 4907 0634 00C0      		rjmp .L223
 4908               	.L228:
 4909 0636 C601      		movw r24,r12
 4910 0638 0197      		sbiw r24,1
 4911 063a 4817      		cp r20,r24
 4912 063c 5907      		cpc r21,r25
 4913 063e 04F0      		brlt .+2
 4914 0640 00C0      		rjmp .L223
 4915               	.LSM416:
 4916 0642 0894      		sec
 4917 0644 E11C      		adc r14,__zero_reg__
 4918 0646 F11C      		adc r15,__zero_reg__
 4919               	.LSM417:
 4920 0648 F801      		movw r30,r16
 4921 064a E40F      		add r30,r20
 4922 064c F51F      		adc r31,r21
 4923 064e 2083      		st Z,r18
 4924 0650 CA01      		movw r24,r20
 4925 0652 0196      		adiw r24,1
 4926               	.LVL462:
 4927               	.LSM418:
 4928 0654 F801      		movw r30,r16
 4929 0656 E80F      		add r30,r24
 4930 0658 F91F      		adc r31,r25
 4931 065a 3083      		st Z,r19
 4932 065c AC01      		movw r20,r24
 4933 065e 00C0      		rjmp .L275
 4934               	.LVL463:
 4935               	.L227:
 4936               	.LSM419:
 4937 0660 622F      		mov r22,r18
 4938 0662 70E0      		ldi r23,lo8(0)
 4939 0664 E0E0      		ldi r30,lo8(.LC0)
 4940 0666 F0E0      		ldi r31,hi8(.LC0)
 4941               	.LVL464:
 4942 0668 00C0      		rjmp .L229
 4943               	.L231:
 4944               	.LBB40:
 4945               	.LBB41:
 4946               	.LSM420:
 4947 066a 3196      		adiw r30,1
 4948               	.L229:
 4949 066c 8081      		ld r24,Z
 4950 066e 8823      		tst r24
 4951 0670 01F0      		breq .L230
 4952 0672 90E0      		ldi r25,lo8(0)
 4953 0674 8617      		cp r24,r22
 4954 0676 9707      		cpc r25,r23
 4955 0678 01F4      		brne .L231
 4956 067a 00C0      		rjmp .L223
 4957               	.L230:
 4958               	.LBE41:
 4959               	.LBE40:
 4960               	.LSM421:
 4961 067c 822F      		mov r24,r18
 4962 067e 8154      		subi r24,lo8(-(-65))
 4963 0680 8A31      		cpi r24,lo8(26)
 4964 0682 00F4      		brsh .L232
 4965               	.LSM422:
 4966 0684 A260      		ori r26,lo8(2)
 4967 0686 00C0      		rjmp .L233
 4968               	.L232:
 4969               	.LSM423:
 4970 0688 822F      		mov r24,r18
 4971 068a 8156      		subi r24,lo8(-(-97))
 4972 068c 8A31      		cpi r24,lo8(26)
 4973 068e 00F4      		brsh .L233
 4974               	.LSM424:
 4975 0690 A160      		ori r26,lo8(1)
 4976 0692 2052      		subi r18,lo8(-(-32))
 4977               	.L233:
 4978               	.LSM425:
 4979 0694 F801      		movw r30,r16
 4980               	.LVL465:
 4981 0696 E40F      		add r30,r20
 4982 0698 F51F      		adc r31,r21
 4983 069a 2083      		st Z,r18
 4984               	.LVL466:
 4985               	.L275:
 4986 069c 4F5F      		subi r20,lo8(-(1))
 4987 069e 5F4F      		sbci r21,hi8(-(1))
 4988 06a0 00C0      		rjmp .L273
 4989               	.L219:
 4990 06a2 64E0      		ldi r22,lo8(4)
 4991               	.LVL467:
 4992               	.L267:
 4993               	.LSM426:
 4994 06a4 452B      		or r20,r21
 4995 06a6 01F4      		brne .+2
 4996 06a8 00C0      		rjmp .L223
 4997               	.LSM427:
 4998 06aa F801      		movw r30,r16
 4999 06ac 8081      		ld r24,Z
 5000 06ae 853E      		cpi r24,lo8(-27)
 5001 06b0 01F4      		brne .L234
 5002 06b2 9082      		st Z,r9
 5003               	.L234:
 5004               	.LSM428:
 5005 06b4 F8E0      		ldi r31,lo8(8)
 5006 06b6 CF16      		cp r12,r31
 5007 06b8 D104      		cpc r13,__zero_reg__
 5008 06ba 01F4      		brne .L235
 5009 06bc AA0F      		lsl r26
 5010 06be AA0F      		lsl r26
 5011               	.L235:
 5012               	.LSM429:
 5013 06c0 2A2F      		mov r18,r26
 5014 06c2 30E0      		ldi r19,lo8(0)
 5015               	.LVL468:
 5016 06c4 C901      		movw r24,r18
 5017 06c6 8370      		andi r24,lo8(3)
 5018 06c8 9070      		andi r25,hi8(3)
 5019 06ca 0197      		sbiw r24,1
 5020 06cc 01F4      		brne .L236
 5021 06ce 6061      		ori r22,lo8(16)
 5022               	.L236:
 5023               	.LSM430:
 5024 06d0 2C70      		andi r18,lo8(12)
 5025 06d2 3070      		andi r19,hi8(12)
 5026 06d4 2430      		cpi r18,4
 5027 06d6 3105      		cpc r19,__zero_reg__
 5028 06d8 01F4      		brne .L237
 5029 06da 6860      		ori r22,lo8(8)
 5030               	.L237:
 5031               	.LSM431:
 5032 06dc D801      		movw r26,r16
 5033               	.LVL469:
 5034 06de 1B96      		adiw r26,11
 5035 06e0 6C93      		st X,r22
 5036               	.LBE38:
 5037               	.LBE48:
 5038               	.LBB49:
 5039               	.LSM432:
 5040 06e2 C501      		movw r24,r10
 5041 06e4 60E0      		ldi r22,lo8(0)
 5042 06e6 70E0      		ldi r23,hi8(0)
 5043               	.LVL470:
 5044 06e8 0E94 0000 		call dir_sdi
 5045               	.LVL471:
 5046               	.L276:
 5047 06ec 482F      		mov r20,r24
 5048               	.LVL472:
 5049               	.LBB44:
 5050               	.LSM433:
 5051 06ee 8823      		tst r24
 5052 06f0 01F4      		brne .L238
 5053               	.LVL473:
 5054               	.LBE44:
 5055               	.LSM434:
 5056 06f2 4B8D      		ldd r20,Y+27
 5057 06f4 5C8D      		ldd r21,Y+28
 5058 06f6 6D8D      		ldd r22,Y+29
 5059 06f8 7E8D      		ldd r23,Y+30
 5060 06fa 8D85      		ldd r24,Y+13
 5061 06fc 9E85      		ldd r25,Y+14
 5062               	.LVL474:
 5063 06fe 0E94 0000 		call move_window
 5064 0702 482F      		mov r20,r24
 5065               	.LVL475:
 5066               	.LBB47:
 5067               	.LSM435:
 5068 0704 8823      		tst r24
 5069 0706 01F4      		brne .L238
 5070               	.LVL476:
 5071               	.LSM436:
 5072 0708 EF8D      		ldd r30,Y+31
 5073 070a F8A1      		ldd r31,Y+32
 5074               	.LVL477:
 5075               	.LSM437:
 5076 070c 8081      		ld r24,Z
 5077               	.LVL478:
 5078 070e 8823      		tst r24
 5079 0710 01F4      		brne .L239
 5080 0712 44E0      		ldi r20,lo8(4)
 5081 0714 00C0      		rjmp .L238
 5082               	.L239:
 5083               	.LSM438:
 5084 0716 8385      		ldd r24,Z+11
 5085 0718 83FD      		sbrc r24,3
 5086 071a 00C0      		rjmp .L240
 5087 071c 89A1      		ldd r24,Y+33
 5088               	.LVL479:
 5089 071e 9AA1      		ldd r25,Y+34
 5090               	.LVL480:
 5091 0720 9C01      		movw r18,r24
 5092               	.LVL481:
 5093 0722 D901      		movw r26,r18
 5094               	.LVL482:
 5095 0724 2BE0      		ldi r18,lo8(11)
 5096 0726 30E0      		ldi r19,hi8(11)
 5097               	.LVL483:
 5098               	.L241:
 5099               	.LBB45:
 5100               	.LBB46:
 5101               	.LSM439:
 5102 0728 2150      		subi r18,lo8(-(-1))
 5103 072a 3040      		sbci r19,hi8(-(-1))
 5104 072c 5FEF      		ldi r21,hi8(-1)
 5105 072e 2F3F      		cpi r18,lo8(-1)
 5106 0730 3507      		cpc r19,r21
 5107 0732 01F0      		breq .L238
 5108 0734 9081      		ld r25,Z
 5109               	.LVL484:
 5110 0736 8C91      		ld r24,X
 5111 0738 9817      		cp r25,r24
 5112 073a 01F4      		brne .L240
 5113 073c 3196      		adiw r30,1
 5114               	.LVL485:
 5115 073e 1196      		adiw r26,1
 5116 0740 00C0      		rjmp .L241
 5117               	.LVL486:
 5118               	.L240:
 5119               	.LBE46:
 5120               	.LBE45:
 5121               	.LBE47:
 5122               	.LSM440:
 5123 0742 C501      		movw r24,r10
 5124 0744 60E0      		ldi r22,lo8(0)
 5125 0746 70E0      		ldi r23,hi8(0)
 5126 0748 0E94 0000 		call dir_next
 5127               	.LVL487:
 5128 074c 00C0      		rjmp .L276
 5129               	.LVL488:
 5130               	.L238:
 5131               	.LBE49:
 5132               	.LSM441:
 5133 074e E9A1      		ldd r30,Y+33
 5134 0750 FAA1      		ldd r31,Y+34
 5135               	.LVL489:
 5136 0752 8385      		ldd r24,Z+11
 5137               	.LVL490:
 5138               	.LSM442:
 5139 0754 4423      		tst r20
 5140 0756 01F0      		breq .L243
 5141 0758 B42E      		mov r11,r20
 5142               	.LSM443:
 5143 075a 94E0      		ldi r25,lo8(4)
 5144               	.LVL491:
 5145 075c 4917      		cp r20,r25
 5146 075e 01F4      		brne .L244
 5147               	.LSM444:
 5148 0760 82FF      		sbrs r24,2
 5149 0762 00C0      		rjmp .L245
 5150 0764 00C0      		rjmp .L215
 5151               	.LVL492:
 5152               	.L243:
 5153               	.LSM445:
 5154 0766 82FD      		sbrc r24,2
 5155 0768 00C0      		rjmp .L244
 5156               	.LSM446:
 5157 076a EF8D      		ldd r30,Y+31
 5158 076c F8A1      		ldd r31,Y+32
 5159               	.LVL493:
 5160               	.LSM447:
 5161 076e 8385      		ldd r24,Z+11
 5162               	.LVL494:
 5163 0770 84FF      		sbrs r24,4
 5164 0772 00C0      		rjmp .L245
 5165               	.LBB50:
 5166               	.LBB42:
 5167               	.LSM448:
 5168 0774 ACA9      		ldd r26,Y+52
 5169 0776 BDA9      		ldd r27,Y+53
 5170               	.LVL495:
 5171 0778 AE0D      		add r26,r14
 5172 077a BF1D      		adc r27,r15
 5173 077c BDAB      		std Y+53,r27
 5174 077e ACAB      		std Y+52,r26
 5175               	.LVL496:
 5176               	.LBE42:
 5177               	.LBE50:
 5178               	.LSM449:
 5179 0780 8489      		ldd r24,Z+20
 5180 0782 9589      		ldd r25,Z+21
 5181 0784 A0E0      		ldi r26,lo8(0)
 5182 0786 B0E0      		ldi r27,hi8(0)
 5183 0788 DC01      		movw r26,r24
 5184 078a 9927      		clr r25
 5185 078c 8827      		clr r24
 5186               	.LVL497:
 5187 078e 228D      		ldd r18,Z+26
 5188 0790 338D      		ldd r19,Z+27
 5189               	.LVL498:
 5190 0792 40E0      		ldi r20,lo8(0)
 5191 0794 50E0      		ldi r21,hi8(0)
 5192               	.LVL499:
 5193 0796 822B      		or r24,r18
 5194 0798 932B      		or r25,r19
 5195 079a A42B      		or r26,r20
 5196 079c B52B      		or r27,r21
 5197 079e 8B8B      		std Y+19,r24
 5198 07a0 9C8B      		std Y+20,r25
 5199 07a2 AD8B      		std Y+21,r26
 5200 07a4 BE8B      		std Y+22,r27
 5201 07a6 00C0      		rjmp .L274
 5202               	.LVL500:
 5203               	.L223:
 5204 07a8 B6E0      		ldi r27,lo8(6)
 5205 07aa BB2E      		mov r11,r27
 5206 07ac 00C0      		rjmp .L215
 5207               	.LVL501:
 5208               	.L244:
 5209 07ae B42E      		mov r11,r20
 5210 07b0 00C0      		rjmp .L215
 5211               	.LVL502:
 5212               	.L245:
 5213 07b2 A5E0      		ldi r26,lo8(5)
 5214 07b4 BA2E      		mov r11,r26
 5215               	.LVL503:
 5216               	.L215:
 5217               	.LBE51:
 5218               	.LBE35:
 5219               	.LSM450:
 5220 07b6 EF8D      		ldd r30,Y+31
 5221 07b8 F8A1      		ldd r31,Y+32
 5222               	.LVL504:
 5223 07ba F9AB      		std Y+49,r31
 5224 07bc E8AB      		std Y+48,r30
 5225               	.LVL505:
 5226               	.LSM451:
 5227 07be BB20      		tst r11
 5228 07c0 01F4      		brne .L246
 5229               	.LSM452:
 5230 07c2 EF2B      		or r30,r31
 5231 07c4 01F4      		brne .L246
 5232 07c6 F6E0      		ldi r31,lo8(6)
 5233 07c8 BF2E      		mov r11,r31
 5234               	.LVL506:
 5235               	.L246:
 5236               	.LSM453:
 5237 07ca FBA5      		ldd r31,Y+43
 5238 07cc 2F2F      		mov r18,r31
 5239               	.LVL507:
 5240 07ce 30E0      		ldi r19,lo8(0)
 5241               	.LVL508:
 5242 07d0 C901      		movw r24,r18
 5243               	.LVL509:
 5244 07d2 8C71      		andi r24,lo8(28)
 5245 07d4 9070      		andi r25,hi8(28)
 5246 07d6 892B      		or r24,r25
 5247 07d8 01F4      		brne .+2
 5248 07da 00C0      		rjmp .L247
 5249               	.LBB52:
 5250               	.LSM454:
 5251 07dc BB20      		tst r11
 5252 07de 01F4      		brne .+2
 5253 07e0 00C0      		rjmp .L248
 5254               	.LSM455:
 5255 07e2 24E0      		ldi r18,lo8(4)
 5256 07e4 B216      		cp r11,r18
 5257 07e6 01F4      		brne .L249
 5258               	.LBB57:
 5259               	.LSM456:
 5260 07e8 8E01      		movw r16,r28
 5261               	.LVL510:
 5262 07ea 035F      		subi r16,lo8(-(13))
 5263 07ec 1F4F      		sbci r17,hi8(-(13))
 5264 07ee C801      		movw r24,r16
 5265 07f0 60E0      		ldi r22,lo8(0)
 5266 07f2 70E0      		ldi r23,hi8(0)
 5267               	.LVL511:
 5268 07f4 0E94 0000 		call dir_sdi
 5269               	.LVL512:
 5270 07f8 B82E      		mov r11,r24
 5271               	.LBB60:
 5272               	.LSM457:
 5273 07fa 8823      		tst r24
 5274 07fc 01F4      		brne .L249
 5275               	.LVL513:
 5276               	.L269:
 5277               	.LBE60:
 5278               	.LSM458:
 5279 07fe 4B8D      		ldd r20,Y+27
 5280 0800 5C8D      		ldd r21,Y+28
 5281 0802 6D8D      		ldd r22,Y+29
 5282 0804 7E8D      		ldd r23,Y+30
 5283 0806 8D85      		ldd r24,Y+13
 5284 0808 9E85      		ldd r25,Y+14
 5285               	.LVL514:
 5286 080a 0E94 0000 		call move_window
 5287 080e B82E      		mov r11,r24
 5288               	.LBB59:
 5289               	.LSM459:
 5290 0810 8823      		tst r24
 5291 0812 01F4      		brne .L249
 5292               	.LVL515:
 5293               	.LSM460:
 5294 0814 EF8D      		ldd r30,Y+31
 5295 0816 F8A1      		ldd r31,Y+32
 5296 0818 E081      		ld r30,Z
 5297               	.LVL516:
 5298               	.LSM461:
 5299 081a E53E      		cpi r30,lo8(-27)
 5300 081c 01F4      		brne .+2
 5301 081e 00C0      		rjmp .L250
 5302 0820 EE23      		tst r30
 5303 0822 01F4      		brne .+2
 5304 0824 00C0      		rjmp .L250
 5305               	.LBE59:
 5306               	.LSM462:
 5307 0826 C801      		movw r24,r16
 5308               	.LVL517:
 5309 0828 61E0      		ldi r22,lo8(1)
 5310 082a 70E0      		ldi r23,hi8(1)
 5311 082c 0E94 0000 		call dir_next
 5312               	.LVL518:
 5313 0830 B82E      		mov r11,r24
 5314               	.LBB58:
 5315               	.LSM463:
 5316 0832 8823      		tst r24
 5317 0834 01F0      		breq .L269
 5318               	.LVL519:
 5319 0836 00C0      		rjmp .L249
 5320               	.L277:
 5321               	.LSM464:
 5322 0838 0F8D      		ldd r16,Y+31
 5323 083a 18A1      		ldd r17,Y+32
 5324               	.LVL520:
 5325               	.LSM465:
 5326 083c C801      		movw r24,r16
 5327               	.LVL521:
 5328 083e 60E0      		ldi r22,lo8(0)
 5329 0840 70E0      		ldi r23,hi8(0)
 5330 0842 40E2      		ldi r20,lo8(32)
 5331 0844 50E0      		ldi r21,hi8(32)
 5332 0846 0E94 0000 		call mem_set
 5333               	.LSM466:
 5334 084a 69A1      		ldd r22,Y+33
 5335 084c 7AA1      		ldd r23,Y+34
 5336 084e C801      		movw r24,r16
 5337 0850 4BE0      		ldi r20,lo8(11)
 5338 0852 50E0      		ldi r21,hi8(11)
 5339 0854 0E94 0000 		call mem_cpy
 5340               	.LSM467:
 5341 0858 ED85      		ldd r30,Y+13
 5342 085a FE85      		ldd r31,Y+14
 5343 085c 81E0      		ldi r24,lo8(1)
 5344 085e 8483      		std Z+4,r24
 5345               	.LVL522:
 5346               	.L249:
 5347               	.LBE58:
 5348               	.LBE57:
 5349               	.LSM468:
 5350 0860 4F8D      		ldd r20,Y+31
 5351 0862 58A1      		ldd r21,Y+32
 5352               	.LVL523:
 5353 0864 59AB      		std Y+49,r21
 5354 0866 48AB      		std Y+48,r20
 5355               	.LVL524:
 5356               	.LSM469:
 5357 0868 BB20      		tst r11
 5358 086a 01F0      		breq .+2
 5359 086c 00C0      		rjmp .L252
 5360               	.LSM470:
 5361 086e 5BA5      		ldd r21,Y+43
 5362 0870 5860      		ori r21,lo8(8)
 5363 0872 5BA7      		std Y+43,r21
 5364               	.LVL525:
 5365 0874 00C0      		rjmp .L253
 5366               	.LVL526:
 5367               	.L248:
 5368               	.LSM471:
 5369 0876 F2FF      		sbrs r31,2
 5370 0878 00C0      		rjmp .L254
 5371 087a E8E0      		ldi r30,lo8(8)
 5372 087c BE2E      		mov r11,r30
 5373 087e 00C0      		rjmp .L252
 5374               	.LVL527:
 5375               	.L254:
 5376               	.LSM472:
 5377 0880 A8A9      		ldd r26,Y+48
 5378 0882 B9A9      		ldd r27,Y+49
 5379               	.LVL528:
 5380 0884 1B96      		adiw r26,11
 5381 0886 8C91      		ld r24,X
 5382 0888 8171      		andi r24,lo8(17)
 5383 088a 01F0      		breq .+2
 5384 088c 00C0      		rjmp .L264
 5385               	.LVL529:
 5386               	.L253:
 5387               	.LSM473:
 5388 088e BBA5      		ldd r27,Y+43
 5389 0890 B3FF      		sbrs r27,3
 5390 0892 00C0      		rjmp .L256
 5391               	.LSM474:
 5392 0894 0E94 0000 		call get_fattime
 5393               	.LVL530:
 5394               	.LSM475:
 5395 0898 E8A9      		ldd r30,Y+48
 5396 089a F9A9      		ldd r31,Y+49
 5397 089c 6687      		std Z+14,r22
 5398 089e 7787      		std Z+15,r23
 5399 08a0 808B      		std Z+16,r24
 5400 08a2 918B      		std Z+17,r25
 5401               	.LVL531:
 5402               	.LSM476:
 5403 08a4 1386      		std Z+11,__zero_reg__
 5404               	.LSM477:
 5405 08a6 A8A9      		ldd r26,Y+48
 5406 08a8 B9A9      		ldd r27,Y+49
 5407 08aa 5C96      		adiw r26,28
 5408 08ac 1D92      		st X+,__zero_reg__
 5409 08ae 1D92      		st X+,__zero_reg__
 5410 08b0 1D92      		st X+,__zero_reg__
 5411 08b2 1C92      		st X,__zero_reg__
 5412 08b4 5F97      		sbiw r26,28+3
 5413               	.LSM478:
 5414 08b6 5496      		adiw r26,20
 5415 08b8 8D91      		ld r24,X+
 5416 08ba 9C91      		ld r25,X
 5417 08bc 5597      		sbiw r26,20+1
 5418 08be A0E0      		ldi r26,lo8(0)
 5419 08c0 B0E0      		ldi r27,hi8(0)
 5420 08c2 7C01      		movw r14,r24
 5421 08c4 DD24      		clr r13
 5422 08c6 CC24      		clr r12
 5423               	.LVL532:
 5424 08c8 E8A9      		ldd r30,Y+48
 5425 08ca F9A9      		ldd r31,Y+49
 5426 08cc 828D      		ldd r24,Z+26
 5427 08ce 938D      		ldd r25,Z+27
 5428 08d0 A0E0      		ldi r26,lo8(0)
 5429 08d2 B0E0      		ldi r27,hi8(0)
 5430 08d4 C82A      		or r12,r24
 5431 08d6 D92A      		or r13,r25
 5432 08d8 EA2A      		or r14,r26
 5433 08da FB2A      		or r15,r27
 5434               	.LSM479:
 5435 08dc 158A      		std Z+21,__zero_reg__
 5436 08de 148A      		std Z+20,__zero_reg__
 5437               	.LSM480:
 5438 08e0 138E      		std Z+27,__zero_reg__
 5439 08e2 128E      		std Z+26,__zero_reg__
 5440               	.LSM481:
 5441 08e4 ED85      		ldd r30,Y+13
 5442 08e6 FE85      		ldd r31,Y+14
 5443 08e8 81E0      		ldi r24,lo8(1)
 5444 08ea 8483      		std Z+4,r24
 5445               	.LSM482:
 5446 08ec C114      		cp r12,__zero_reg__
 5447 08ee D104      		cpc r13,__zero_reg__
 5448 08f0 E104      		cpc r14,__zero_reg__
 5449 08f2 F104      		cpc r15,__zero_reg__
 5450 08f4 01F4      		brne .+2
 5451 08f6 00C0      		rjmp .L256
 5452               	.LSM483:
 5453 08f8 2D84      		ldd r2,Y+13
 5454 08fa 3E84      		ldd r3,Y+14
 5455 08fc D101      		movw r26,r2
 5456 08fe 9A96      		adiw r26,42
 5457 0900 2D91      		ld r18,X+
 5458 0902 3D91      		ld r19,X+
 5459 0904 4D91      		ld r20,X+
 5460 0906 5C91      		ld r21,X
 5461 0908 9D97      		sbiw r26,42+3
 5462 090a 2FA3      		std Y+39,r18
 5463 090c 38A7      		std Y+40,r19
 5464 090e 49A7      		std Y+41,r20
 5465 0910 5AA7      		std Y+42,r21
 5466               	.LVL533:
 5467               	.LBB53:
 5468               	.LBB54:
 5469               	.LSM484:
 5470 0912 B1E0      		ldi r27,lo8(1)
 5471 0914 CB16      		cp r12,r27
 5472 0916 D104      		cpc r13,__zero_reg__
 5473 0918 E104      		cpc r14,__zero_reg__
 5474 091a F104      		cpc r15,__zero_reg__
 5475 091c 01F4      		brne .+2
 5476 091e 00C0      		rjmp .L257
 5477 0920 F101      		movw r30,r2
 5478 0922 8689      		ldd r24,Z+22
 5479 0924 9789      		ldd r25,Z+23
 5480 0926 A08D      		ldd r26,Z+24
 5481 0928 B18D      		ldd r27,Z+25
 5482 092a C816      		cp r12,r24
 5483 092c D906      		cpc r13,r25
 5484 092e EA06      		cpc r14,r26
 5485 0930 FB06      		cpc r15,r27
 5486 0932 00F0      		brlo .+2
 5487 0934 00C0      		rjmp .L257
 5488 0936 4601      		movw r8,r12
 5489 0938 5701      		movw r10,r14
 5490               	.LVL534:
 5491 093a 00C0      		rjmp .L258
 5492               	.LVL535:
 5493               	.L262:
 5494               	.LBE54:
 5495               	.LSM485:
 5496 093c C101      		movw r24,r2
 5497 093e B501      		movw r22,r10
 5498 0940 A401      		movw r20,r8
 5499 0942 0E94 0000 		call get_fat
 5500 0946 2B01      		movw r4,r22
 5501 0948 3C01      		movw r6,r24
 5502               	.LVL536:
 5503               	.LBB55:
 5504               	.LSM486:
 5505 094a 6115      		cp r22,__zero_reg__
 5506 094c 7105      		cpc r23,__zero_reg__
 5507 094e 8105      		cpc r24,__zero_reg__
 5508 0950 9105      		cpc r25,__zero_reg__
 5509 0952 01F4      		brne .+2
 5510 0954 00C0      		rjmp .L259
 5511               	.LVL537:
 5512               	.LSM487:
 5513 0956 6130      		cpi r22,lo8(1)
 5514 0958 7105      		cpc r23,__zero_reg__
 5515 095a 8105      		cpc r24,__zero_reg__
 5516 095c 9105      		cpc r25,__zero_reg__
 5517 095e 01F0      		breq .L257
 5518               	.LSM488:
 5519 0960 6F3F      		cpi r22,lo8(-1)
 5520 0962 2FEF      		ldi r18,hi8(-1)
 5521 0964 7207      		cpc r23,r18
 5522 0966 2FEF      		ldi r18,hlo8(-1)
 5523 0968 8207      		cpc r24,r18
 5524 096a 2FEF      		ldi r18,hhi8(-1)
 5525 096c 9207      		cpc r25,r18
 5526 096e 01F4      		brne .L260
 5527 0970 BB24      		clr r11
 5528 0972 B394      		inc r11
 5529 0974 00C0      		rjmp .L252
 5530               	.L260:
 5531               	.LBE55:
 5532               	.LSM489:
 5533 0976 C101      		movw r24,r2
 5534 0978 B501      		movw r22,r10
 5535 097a A401      		movw r20,r8
 5536 097c 00E0      		ldi r16,lo8(0)
 5537 097e 10E0      		ldi r17,hi8(0)
 5538 0980 20E0      		ldi r18,hlo8(0)
 5539 0982 30E0      		ldi r19,hhi8(0)
 5540               	.LVL538:
 5541 0984 0E94 0000 		call put_fat
 5542               	.LVL539:
 5543 0988 B82E      		mov r11,r24
 5544               	.LBB56:
 5545               	.LSM490:
 5546 098a 8823      		tst r24
 5547 098c 01F0      		breq .+2
 5548 098e 00C0      		rjmp .L252
 5549               	.LVL540:
 5550               	.LSM491:
 5551 0990 F101      		movw r30,r2
 5552 0992 8685      		ldd r24,Z+14
 5553 0994 9785      		ldd r25,Z+15
 5554 0996 A089      		ldd r26,Z+16
 5555 0998 B189      		ldd r27,Z+17
 5556               	.LVL541:
 5557 099a 8F3F      		cpi r24,lo8(-1)
 5558 099c FFEF      		ldi r31,hi8(-1)
 5559 099e 9F07      		cpc r25,r31
 5560 09a0 FFEF      		ldi r31,hlo8(-1)
 5561 09a2 AF07      		cpc r26,r31
 5562 09a4 FFEF      		ldi r31,hhi8(-1)
 5563 09a6 BF07      		cpc r27,r31
 5564 09a8 01F0      		breq .L261
 5565               	.LSM492:
 5566 09aa 0196      		adiw r24,1
 5567 09ac A11D      		adc r26,__zero_reg__
 5568 09ae B11D      		adc r27,__zero_reg__
 5569 09b0 F101      		movw r30,r2
 5570 09b2 8687      		std Z+14,r24
 5571 09b4 9787      		std Z+15,r25
 5572 09b6 A08B      		std Z+16,r26
 5573 09b8 B18B      		std Z+17,r27
 5574               	.LSM493:
 5575 09ba 21E0      		ldi r18,lo8(1)
 5576 09bc 2583      		std Z+5,r18
 5577               	.L261:
 5578 09be 5301      		movw r10,r6
 5579 09c0 4201      		movw r8,r4
 5580               	.LVL542:
 5581               	.L258:
 5582               	.LSM494:
 5583 09c2 F101      		movw r30,r2
 5584 09c4 8689      		ldd r24,Z+22
 5585 09c6 9789      		ldd r25,Z+23
 5586 09c8 A08D      		ldd r26,Z+24
 5587 09ca B18D      		ldd r27,Z+25
 5588 09cc 8816      		cp r8,r24
 5589 09ce 9906      		cpc r9,r25
 5590 09d0 AA06      		cpc r10,r26
 5591 09d2 BB06      		cpc r11,r27
 5592 09d4 00F4      		brsh .+2
 5593 09d6 00C0      		rjmp .L262
 5594 09d8 00C0      		rjmp .L259
 5595               	.LVL543:
 5596               	.L257:
 5597 09da 62E0      		ldi r22,lo8(2)
 5598 09dc B62E      		mov r11,r22
 5599 09de 00C0      		rjmp .L252
 5600               	.LVL544:
 5601               	.L247:
 5602               	.LBE56:
 5603               	.LBE53:
 5604               	.LBE52:
 5605               	.LSM495:
 5606 09e0 BB20      		tst r11
 5607 09e2 01F0      		breq .+2
 5608 09e4 00C0      		rjmp .L252
 5609               	.LSM496:
 5610 09e6 A8A9      		ldd r26,Y+48
 5611 09e8 B9A9      		ldd r27,Y+49
 5612               	.LVL545:
 5613 09ea 1B96      		adiw r26,11
 5614 09ec 8C91      		ld r24,X
 5615 09ee 84FF      		sbrs r24,4
 5616 09f0 00C0      		rjmp .L263
 5617 09f2 54E0      		ldi r21,lo8(4)
 5618 09f4 B52E      		mov r11,r21
 5619 09f6 00C0      		rjmp .L252
 5620               	.LVL546:
 5621               	.L263:
 5622               	.LSM497:
 5623 09f8 F1FF      		sbrs r31,1
 5624 09fa 00C0      		rjmp .L256
 5625 09fc 80FD      		sbrc r24,0
 5626 09fe 00C0      		rjmp .L264
 5627               	.LVL547:
 5628               	.L256:
 5629               	.LSM498:
 5630 0a00 8BA5      		ldd r24,Y+43
 5631 0a02 8E71      		andi r24,lo8(30)
 5632 0a04 01F0      		breq .L265
 5633               	.LSM499:
 5634 0a06 BBA5      		ldd r27,Y+43
 5635 0a08 B062      		ori r27,lo8(32)
 5636 0a0a BBA7      		std Y+43,r27
 5637               	.LVL548:
 5638               	.L265:
 5639               	.LSM500:
 5640 0a0c 6D85      		ldd r22,Y+13
 5641 0a0e 7E85      		ldd r23,Y+14
 5642               	.LVL549:
 5643 0a10 FB01      		movw r30,r22
 5644 0a12 22A5      		ldd r18,Z+42
 5645 0a14 33A5      		ldd r19,Z+43
 5646 0a16 44A5      		ldd r20,Z+44
 5647 0a18 55A5      		ldd r21,Z+45
 5648 0a1a AAA9      		ldd r26,Y+50
 5649 0a1c BBA9      		ldd r27,Y+51
 5650               	.LVL550:
 5651 0a1e 5A96      		adiw r26,26
 5652 0a20 2D93      		st X+,r18
 5653 0a22 3D93      		st X+,r19
 5654 0a24 4D93      		st X+,r20
 5655 0a26 5C93      		st X,r21
 5656 0a28 5D97      		sbiw r26,26+3
 5657               	.LSM501:
 5658 0a2a E8A9      		ldd r30,Y+48
 5659 0a2c F9A9      		ldd r31,Y+49
 5660 0a2e 5F96      		adiw r26,30+1
 5661 0a30 FC93      		st X,r31
 5662 0a32 EE93      		st -X,r30
 5663 0a34 5E97      		sbiw r26,30
 5664               	.LSM502:
 5665 0a36 FBA5      		ldd r31,Y+43
 5666 0a38 1496      		adiw r26,4
 5667 0a3a FC93      		st X,r31
 5668               	.LSM503:
 5669 0a3c A8A9      		ldd r26,Y+48
 5670 0a3e B9A9      		ldd r27,Y+49
 5671 0a40 5496      		adiw r26,20
 5672 0a42 8D91      		ld r24,X+
 5673 0a44 9C91      		ld r25,X
 5674 0a46 5597      		sbiw r26,20+1
 5675 0a48 A0E0      		ldi r26,lo8(0)
 5676 0a4a B0E0      		ldi r27,hi8(0)
 5677 0a4c DC01      		movw r26,r24
 5678 0a4e 9927      		clr r25
 5679 0a50 8827      		clr r24
 5680               	.LVL551:
 5681 0a52 E8A9      		ldd r30,Y+48
 5682 0a54 F9A9      		ldd r31,Y+49
 5683 0a56 228D      		ldd r18,Z+26
 5684 0a58 338D      		ldd r19,Z+27
 5685 0a5a 40E0      		ldi r20,lo8(0)
 5686 0a5c 50E0      		ldi r21,hi8(0)
 5687 0a5e 822B      		or r24,r18
 5688 0a60 932B      		or r25,r19
 5689 0a62 A42B      		or r26,r20
 5690 0a64 B52B      		or r27,r21
 5691 0a66 EAA9      		ldd r30,Y+50
 5692 0a68 FBA9      		ldd r31,Y+51
 5693 0a6a 8687      		std Z+14,r24
 5694 0a6c 9787      		std Z+15,r25
 5695 0a6e A08B      		std Z+16,r26
 5696 0a70 B18B      		std Z+17,r27
 5697               	.LSM504:
 5698 0a72 E8A9      		ldd r30,Y+48
 5699 0a74 F9A9      		ldd r31,Y+49
 5700 0a76 848D      		ldd r24,Z+28
 5701 0a78 958D      		ldd r25,Z+29
 5702 0a7a A68D      		ldd r26,Z+30
 5703 0a7c B78D      		ldd r27,Z+31
 5704 0a7e EAA9      		ldd r30,Y+50
 5705 0a80 FBA9      		ldd r31,Y+51
 5706 0a82 8287      		std Z+10,r24
 5707 0a84 9387      		std Z+11,r25
 5708 0a86 A487      		std Z+12,r26
 5709 0a88 B587      		std Z+13,r27
 5710               	.LSM505:
 5711 0a8a AAA9      		ldd r26,Y+50
 5712 0a8c BBA9      		ldd r27,Y+51
 5713 0a8e 1696      		adiw r26,6
 5714 0a90 1D92      		st X+,__zero_reg__
 5715 0a92 1D92      		st X+,__zero_reg__
 5716 0a94 1D92      		st X+,__zero_reg__
 5717 0a96 1C92      		st X,__zero_reg__
 5718 0a98 1997      		sbiw r26,6+3
 5719               	.LSM506:
 5720 0a9a EAA9      		ldd r30,Y+50
 5721 0a9c FBA9      		ldd r31,Y+51
 5722 0a9e 168A      		std Z+22,__zero_reg__
 5723 0aa0 178A      		std Z+23,__zero_reg__
 5724 0aa2 108E      		std Z+24,__zero_reg__
 5725 0aa4 118E      		std Z+25,__zero_reg__
 5726               	.LSM507:
 5727 0aa6 7183      		std Z+1,r23
 5728 0aa8 6083      		st Z,r22
 5729 0aaa DB01      		movw r26,r22
 5730 0aac 1696      		adiw r26,6
 5731 0aae 8D91      		ld r24,X+
 5732 0ab0 9C91      		ld r25,X
 5733 0ab2 1797      		sbiw r26,6+1
 5734 0ab4 9383      		std Z+3,r25
 5735 0ab6 8283      		std Z+2,r24
 5736 0ab8 BB24      		clr r11
 5737               	.LVL552:
 5738               	.L252:
 5739               	.LSM508:
 5740 0aba 8B2D      		mov r24,r11
 5741               	/* epilogue start */
 5742 0abc E596      		adiw r28,53
 5743 0abe 0FB6      		in __tmp_reg__,__SREG__
 5744 0ac0 F894      		cli
 5745 0ac2 DEBF      		out __SP_H__,r29
 5746 0ac4 0FBE      		out __SREG__,__tmp_reg__
 5747 0ac6 CDBF      		out __SP_L__,r28
 5748 0ac8 CF91      		pop r28
 5749 0aca DF91      		pop r29
 5750 0acc 1F91      		pop r17
 5751               	.LVL553:
 5752 0ace 0F91      		pop r16
 5753               	.LVL554:
 5754 0ad0 FF90      		pop r15
 5755 0ad2 EF90      		pop r14
 5756               	.LVL555:
 5757 0ad4 DF90      		pop r13
 5758 0ad6 CF90      		pop r12
 5759               	.LVL556:
 5760 0ad8 BF90      		pop r11
 5761               	.LVL557:
 5762 0ada AF90      		pop r10
 5763               	.LVL558:
 5764 0adc 9F90      		pop r9
 5765 0ade 8F90      		pop r8
 5766               	.LVL559:
 5767 0ae0 7F90      		pop r7
 5768 0ae2 6F90      		pop r6
 5769               	.LVL560:
 5770 0ae4 5F90      		pop r5
 5771 0ae6 4F90      		pop r4
 5772               	.LVL561:
 5773 0ae8 3F90      		pop r3
 5774 0aea 2F90      		pop r2
 5775 0aec 0895      		ret
 5776               	.LVL562:
 5777               	.L264:
 5778               	.LSM509:
 5779 0aee 37E0      		ldi r19,lo8(7)
 5780 0af0 B32E      		mov r11,r19
 5781 0af2 00C0      		rjmp .L252
 5782               	.LVL563:
 5783               	.L250:
 5784               	.LBB63:
 5785               	.LBB62:
 5786               	.LSM510:
 5787 0af4 4B8D      		ldd r20,Y+27
 5788 0af6 5C8D      		ldd r21,Y+28
 5789 0af8 6D8D      		ldd r22,Y+29
 5790 0afa 7E8D      		ldd r23,Y+30
 5791 0afc 8D85      		ldd r24,Y+13
 5792 0afe 9E85      		ldd r25,Y+14
 5793               	.LVL564:
 5794 0b00 0E94 0000 		call move_window
 5795               	.LVL565:
 5796 0b04 B82E      		mov r11,r24
 5797               	.LBB61:
 5798               	.LSM511:
 5799 0b06 8823      		tst r24
 5800 0b08 01F0      		breq .+2
 5801 0b0a 00C0      		rjmp .L249
 5802               	.LVL566:
 5803 0b0c 00C0      		rjmp .L277
 5804               	.LVL567:
 5805               	.L259:
 5806               	.LBE61:
 5807               	.LBE62:
 5808               	.LSM512:
 5809 0b0e ED85      		ldd r30,Y+13
 5810 0b10 FE85      		ldd r31,Y+14
 5811 0b12 0894      		sec
 5812 0b14 C108      		sbc r12,__zero_reg__
 5813 0b16 D108      		sbc r13,__zero_reg__
 5814 0b18 E108      		sbc r14,__zero_reg__
 5815 0b1a F108      		sbc r15,__zero_reg__
 5816               	.LVL568:
 5817 0b1c C286      		std Z+10,r12
 5818 0b1e D386      		std Z+11,r13
 5819 0b20 E486      		std Z+12,r14
 5820 0b22 F586      		std Z+13,r15
 5821               	.LSM513:
 5822 0b24 8D85      		ldd r24,Y+13
 5823 0b26 9E85      		ldd r25,Y+14
 5824 0b28 4FA1      		ldd r20,Y+39
 5825 0b2a 58A5      		ldd r21,Y+40
 5826 0b2c 69A5      		ldd r22,Y+41
 5827 0b2e 7AA5      		ldd r23,Y+42
 5828 0b30 0E94 0000 		call move_window
 5829 0b34 B82E      		mov r11,r24
 5830               	.LBE63:
 5831               	.LSM514:
 5832 0b36 8823      		tst r24
 5833 0b38 01F4      		brne .+2
 5834 0b3a 00C0      		rjmp .L256
 5835               	.LVL569:
 5836 0b3c 00C0      		rjmp .L252
 5837               	.LVL570:
 5838               	.L220:
 5839 0b3e 60E0      		ldi r22,lo8(0)
 5840               	.LVL571:
 5841 0b40 00C0      		rjmp .L267
 5842               	.LFE149:
 5844               		.lcomm Fsid,2
 5845               		.lcomm FatFs,2
 6006               	.Letext0:
DEFINED SYMBOLS
                            *ABS*:00000000 ff.c
/var/folders/fy/fkrt37kj6jd3by75mtf4gsxr0000gn/T//ccm7hvZH.s:2      *ABS*:0000003f __SREG__
/var/folders/fy/fkrt37kj6jd3by75mtf4gsxr0000gn/T//ccm7hvZH.s:3      *ABS*:0000003e __SP_H__
/var/folders/fy/fkrt37kj6jd3by75mtf4gsxr0000gn/T//ccm7hvZH.s:4      *ABS*:0000003d __SP_L__
/var/folders/fy/fkrt37kj6jd3by75mtf4gsxr0000gn/T//ccm7hvZH.s:5      *ABS*:00000034 __CCP__
/var/folders/fy/fkrt37kj6jd3by75mtf4gsxr0000gn/T//ccm7hvZH.s:6      *ABS*:00000000 __tmp_reg__
/var/folders/fy/fkrt37kj6jd3by75mtf4gsxr0000gn/T//ccm7hvZH.s:7      *ABS*:00000001 __zero_reg__
/var/folders/fy/fkrt37kj6jd3by75mtf4gsxr0000gn/T//ccm7hvZH.s:18     .text.mem_cpy:00000000 mem_cpy
/var/folders/fy/fkrt37kj6jd3by75mtf4gsxr0000gn/T//ccm7hvZH.s:99     .text.mem_set:00000000 mem_set
/var/folders/fy/fkrt37kj6jd3by75mtf4gsxr0000gn/T//ccm7hvZH.s:131    .text.clust2sect:00000000 clust2sect
/var/folders/fy/fkrt37kj6jd3by75mtf4gsxr0000gn/T//ccm7hvZH.s:213    .text.f_mount:00000000 f_mount
/var/folders/fy/fkrt37kj6jd3by75mtf4gsxr0000gn/T//ccm7hvZH.s:5844   .bss:00000002 FatFs
/var/folders/fy/fkrt37kj6jd3by75mtf4gsxr0000gn/T//ccm7hvZH.s:256    .text.validate:00000000 validate
/var/folders/fy/fkrt37kj6jd3by75mtf4gsxr0000gn/T//ccm7hvZH.s:295    .text.move_window:00000000 move_window
/var/folders/fy/fkrt37kj6jd3by75mtf4gsxr0000gn/T//ccm7hvZH.s:458    .text.put_fat:00000000 put_fat
/var/folders/fy/fkrt37kj6jd3by75mtf4gsxr0000gn/T//ccm7hvZH.s:782    .text.get_fat:00000000 get_fat
/var/folders/fy/fkrt37kj6jd3by75mtf4gsxr0000gn/T//ccm7hvZH.s:1044   .text.create_chain:00000000 create_chain
/var/folders/fy/fkrt37kj6jd3by75mtf4gsxr0000gn/T//ccm7hvZH.s:1347   .text.f_lseek:00000000 f_lseek
/var/folders/fy/fkrt37kj6jd3by75mtf4gsxr0000gn/T//ccm7hvZH.s:1908   .text.dir_sdi:00000000 dir_sdi
/var/folders/fy/fkrt37kj6jd3by75mtf4gsxr0000gn/T//ccm7hvZH.s:2157   .text.f_write:00000000 f_write
/var/folders/fy/fkrt37kj6jd3by75mtf4gsxr0000gn/T//ccm7hvZH.s:2729   .text.dir_next:00000000 dir_next
/var/folders/fy/fkrt37kj6jd3by75mtf4gsxr0000gn/T//ccm7hvZH.s:3070   .text.f_read:00000000 f_read
/var/folders/fy/fkrt37kj6jd3by75mtf4gsxr0000gn/T//ccm7hvZH.s:3521   .text.check_fs:00000000 check_fs
/var/folders/fy/fkrt37kj6jd3by75mtf4gsxr0000gn/T//ccm7hvZH.s:3606   .text.f_sync:00000000 f_sync
/var/folders/fy/fkrt37kj6jd3by75mtf4gsxr0000gn/T//ccm7hvZH.s:3854   .text.f_close:00000000 f_close
/var/folders/fy/fkrt37kj6jd3by75mtf4gsxr0000gn/T//ccm7hvZH.s:3888   .text.f_open:00000000 f_open
                             .bss:00000000 Fsid

UNDEFINED SYMBOLS
__mulsi3
disk_status
disk_write
disk_read
__udivmodsi4
get_fattime
disk_ioctl
disk_initialize
__do_copy_data
__do_clear_bss
